
Board_Diagnostics.elf:     file format elf32-littlenios2
Board_Diagnostics.elf
architecture: nios2:r1, flags 0x00000112:
EXEC_P, HAS_SYMS, D_PAGED
start address 0x00800244

Program Header:
    LOAD off    0x00001000 vaddr 0x00800000 paddr 0x00800000 align 2**12
         filesz 0x00000020 memsz 0x00000020 flags r-x
    LOAD off    0x00001020 vaddr 0x00800020 paddr 0x00800020 align 2**12
         filesz 0x0001be64 memsz 0x0001be64 flags r-x
    LOAD off    0x0001ce84 vaddr 0x0081be84 paddr 0x0081dbd0 align 2**12
         filesz 0x00001d4c memsz 0x00001d4c flags rw-
    LOAD off    0x0001f91c vaddr 0x0081f91c paddr 0x0081f91c align 2**12
         filesz 0x00000000 memsz 0x00000178 flags rw-

Sections:
Idx Name          Size      VMA       LMA       File off  Algn
  0 .entry        00000020  00800000  00800000  00001000  2**5
                  CONTENTS, ALLOC, LOAD, READONLY, CODE
  1 .exceptions   00000224  00800020  00800020  00001020  2**2
                  CONTENTS, ALLOC, LOAD, READONLY, CODE
  2 .text         0001b110  00800244  00800244  00001244  2**2
                  CONTENTS, ALLOC, LOAD, READONLY, CODE
  3 .rodata       00000b30  0081b354  0081b354  0001c354  2**2
                  CONTENTS, ALLOC, LOAD, READONLY, DATA
  4 .rwdata       00001d4c  0081be84  0081dbd0  0001ce84  2**2
                  CONTENTS, ALLOC, LOAD, DATA, SMALL_DATA
  5 .bss          00000178  0081f91c  0081f91c  0001f91c  2**2
                  ALLOC, SMALL_DATA
  6 .sdram_0      00000000  0081fa94  0081fa94  0001ebd0  2**0
                  CONTENTS
  7 .comment      00000023  00000000  00000000  0001ebd0  2**0
                  CONTENTS, READONLY
  8 .debug_aranges 00001558  00000000  00000000  0001ebf8  2**3
                  CONTENTS, READONLY, DEBUGGING
  9 .debug_info   0003b793  00000000  00000000  00020150  2**0
                  CONTENTS, READONLY, DEBUGGING
 10 .debug_abbrev 0000e708  00000000  00000000  0005b8e3  2**0
                  CONTENTS, READONLY, DEBUGGING
 11 .debug_line   000128a3  00000000  00000000  00069feb  2**0
                  CONTENTS, READONLY, DEBUGGING
 12 .debug_frame  000031c4  00000000  00000000  0007c890  2**2
                  CONTENTS, READONLY, DEBUGGING
 13 .debug_str    00004a32  00000000  00000000  0007fa54  2**0
                  CONTENTS, READONLY, DEBUGGING
 14 .debug_loc    000251a9  00000000  00000000  00084486  2**0
                  CONTENTS, READONLY, DEBUGGING
 15 .debug_alt_sim_info 00000060  00000000  00000000  000a9630  2**2
                  CONTENTS, READONLY, DEBUGGING
 16 .debug_ranges 000022a0  00000000  00000000  000a9690  2**3
                  CONTENTS, READONLY, DEBUGGING
 17 .thread_model 00000003  00000000  00000000  000afd5f  2**0
                  CONTENTS, READONLY
 18 .cpu          0000000c  00000000  00000000  000afd62  2**0
                  CONTENTS, READONLY
 19 .qsys         00000001  00000000  00000000  000afd6e  2**0
                  CONTENTS, READONLY
 20 .simulation_enabled 00000001  00000000  00000000  000afd6f  2**0
                  CONTENTS, READONLY
 21 .sysid_hash   00000004  00000000  00000000  000afd70  2**0
                  CONTENTS, READONLY
 22 .sysid_base   00000004  00000000  00000000  000afd74  2**0
                  CONTENTS, READONLY
 23 .sysid_time   00000004  00000000  00000000  000afd78  2**0
                  CONTENTS, READONLY
 24 .stderr_dev   0000000b  00000000  00000000  000afd7c  2**0
                  CONTENTS, READONLY
 25 .stdin_dev    0000000b  00000000  00000000  000afd87  2**0
                  CONTENTS, READONLY
 26 .stdout_dev   0000000b  00000000  00000000  000afd92  2**0
                  CONTENTS, READONLY
 27 .sopc_system_name 00000003  00000000  00000000  000afd9d  2**0
                  CONTENTS, READONLY
 28 .quartus_project_dir 00000023  00000000  00000000  000afda0  2**0
                  CONTENTS, READONLY
 29 .jdi          00003c54  00000000  00000000  000afdc3  2**0
                  CONTENTS, READONLY
 30 .sopcinfo     0008ff79  00000000  00000000  000b3a17  2**0
                  CONTENTS, READONLY
SYMBOL TABLE:
00800000 l    d  .entry	00000000 .entry
00800020 l    d  .exceptions	00000000 .exceptions
00800244 l    d  .text	00000000 .text
0081b354 l    d  .rodata	00000000 .rodata
0081be84 l    d  .rwdata	00000000 .rwdata
0081f91c l    d  .bss	00000000 .bss
0081fa94 l    d  .sdram_0	00000000 .sdram_0
00000000 l    d  .comment	00000000 .comment
00000000 l    d  .debug_aranges	00000000 .debug_aranges
00000000 l    d  .debug_info	00000000 .debug_info
00000000 l    d  .debug_abbrev	00000000 .debug_abbrev
00000000 l    d  .debug_line	00000000 .debug_line
00000000 l    d  .debug_frame	00000000 .debug_frame
00000000 l    d  .debug_str	00000000 .debug_str
00000000 l    d  .debug_loc	00000000 .debug_loc
00000000 l    d  .debug_alt_sim_info	00000000 .debug_alt_sim_info
00000000 l    d  .debug_ranges	00000000 .debug_ranges
00000000 l    df *ABS*	00000000 ../Board_Diagnostics_bsp//obj/HAL/src/crt0.o
0080028c l       .text	00000000 alt_after_alt_main
00000000 l    df *ABS*	00000000 alt_irq_handler.c
00000000 l    df *ABS*	00000000 alt_instruction_exception_entry.c
00000000 l    df *ABS*	00000000 board_diag.c
00800290 l     F .text	00000068 MenuBegin
008002f8 l     F .text	00000048 MenuItem
008003cc l     F .text	0000010c MenuEnd
0081f91c l     O .bss	00000004 entry.2673
0081f920 l     O .bss	00000001 ch.2674
008004d8 l     F .text	000000b4 DoSevenSegMenu
0081f921 l     O .bss	00000001 ch.2678
008008f0 l     F .text	0000005c SevenSegCount
0080094c l     F .text	00000238 SevenSegControl
0080058c l     F .text	00000114 TopMenu
0081f922 l     O .bss	00000001 ch.2687
008006a0 l     F .text	000000c8 TestLEDs
00800768 l     F .text	00000108 TestLCD
0081f923 l     O .bss	00000004 entry.2701
0081f927 l     O .bss	00000001 ch.2700
0081f928 l     O .bss	00000004 entry.2709
0081f92c l     O .bss	00000001 ch.2708
00800870 l     F .text	00000080 sevenseg_set_hex
0081be84 l     O .rwdata	00000010 segments.2715
0081f92d l     O .bss	00000001 ch.2730
00000000 l    df *ABS*	00000000 fclose.c
00000000 l    df *ABS*	00000000 fflush.c
00000000 l    df *ABS*	00000000 findfp.c
00800f80 l     F .text	00000008 __fp_lock
00800f88 l     F .text	00000008 __fp_unlock
00800f9c l     F .text	0000019c __sinit.part.1
00000000 l    df *ABS*	00000000 fopen.c
00000000 l    df *ABS*	00000000 fprintf.c
00000000 l    df *ABS*	00000000 mallocr.c
00000000 l    df *ABS*	00000000 fseek.c
00000000 l    df *ABS*	00000000 fseeko.c
00000000 l    df *ABS*	00000000 fstatr.c
00000000 l    df *ABS*	00000000 fwalk.c
00000000 l    df *ABS*	00000000 fwrite.c
00000000 l    df *ABS*	00000000 getc.c
00000000 l    df *ABS*	00000000 impure.c
0081be94 l     O .rwdata	00000424 impure_data
00000000 l    df *ABS*	00000000 int_errno.c
00000000 l    df *ABS*	00000000 makebuf.c
00000000 l    df *ABS*	00000000 mallocr.c
00000000 l    df *ABS*	00000000 memset.c
00000000 l    df *ABS*	00000000 openr.c
00000000 l    df *ABS*	00000000 printf.c
00000000 l    df *ABS*	00000000 putchar.c
00000000 l    df *ABS*	00000000 puts.c
00000000 l    df *ABS*	00000000 refill.c
00802d24 l     F .text	0000001c lflush
00000000 l    df *ABS*	00000000 rget.c
00000000 l    df *ABS*	00000000 sbrkr.c
00000000 l    df *ABS*	00000000 sscanf.c
00000000 l    df *ABS*	00000000 stdio.c
00000000 l    df *ABS*	00000000 strlen.c
00000000 l    df *ABS*	00000000 vfscanf.c
0081b6e2 l     O .rodata	00000022 basefix.4191
00000000 l    df *ABS*	00000000 vfprintf.c
0081b746 l     O .rodata	00000010 zeroes.4255
00806924 l     F .text	000000bc __sbprintf
0081b756 l     O .rodata	00000010 blanks.4254
00000000 l    df *ABS*	00000000 writer.c
00000000 l    df *ABS*	00000000 wsetup.c
00000000 l    df *ABS*	00000000 closer.c
00000000 l    df *ABS*	00000000 ctype_.c
0081b867 l     O .rodata	00000180 _ctype_b
00000000 l    df *ABS*	00000000 dtoa.c
00806be4 l     F .text	00000200 quorem
00000000 l    df *ABS*	00000000 flags.c
00000000 l    df *ABS*	00000000 fvwrite.c
00000000 l    df *ABS*	00000000 isattyr.c
00000000 l    df *ABS*	00000000 iswspace.c
00000000 l    df *ABS*	00000000 locale.c
0081c6e0 l     O .rwdata	00000020 lc_ctype_charset
0081c6c0 l     O .rwdata	00000020 lc_message_charset
0081c700 l     O .rwdata	00000038 lconv
00000000 l    df *ABS*	00000000 lseekr.c
00000000 l    df *ABS*	00000000 mbrtowc.c
00000000 l    df *ABS*	00000000 mbtowc_r.c
00000000 l    df *ABS*	00000000 memchr.c
00000000 l    df *ABS*	00000000 memcpy.c
00000000 l    df *ABS*	00000000 memmove.c
00000000 l    df *ABS*	00000000 mprec.c
0081ba04 l     O .rodata	0000000c p05.2710
00000000 l    df *ABS*	00000000 putc.c
00000000 l    df *ABS*	00000000 readr.c
00000000 l    df *ABS*	00000000 mallocr.c
00000000 l    df *ABS*	00000000 s_fpclassify.c
00000000 l    df *ABS*	00000000 sccl.c
00000000 l    df *ABS*	00000000 sf_nan.c
00000000 l    df *ABS*	00000000 sprintf.c
00000000 l    df *ABS*	00000000 strcmp.c
00000000 l    df *ABS*	00000000 strtod.c
0080ab4c l     F .text	00000064 sulp
0081bb4c l     O .rodata	00000014 fpi.2679
0081bb60 l     O .rodata	00000028 tinytens
0081bb38 l     O .rodata	00000014 fpinan.2715
00000000 l    df *ABS*	00000000 strtol.c
00000000 l    df *ABS*	00000000 strtoll_r.c
00000000 l    df *ABS*	00000000 strtoul.c
00000000 l    df *ABS*	00000000 strtoull_r.c
00000000 l    df *ABS*	00000000 vfscanf.c
0081bb88 l     O .rodata	00000022 basefix.3642
00000000 l    df *ABS*	00000000 vfprintf.c
0081bbaa l     O .rodata	00000010 zeroes.4240
0081bbba l     O .rodata	00000010 blanks.4239
00000000 l    df *ABS*	00000000 ungetc.c
00000000 l    df *ABS*	00000000 vfprintf.c
008102a4 l     F .text	000000fc __sprint_r.part.0
0081bbda l     O .rodata	00000010 blanks.4199
0081bbca l     O .rodata	00000010 zeroes.4200
008116ac l     F .text	000000bc __sbprintf
00000000 l    df *ABS*	00000000 wbuf.c
00000000 l    df *ABS*	00000000 mallocr.c
00000000 l    df *ABS*	00000000 fputwc.c
00000000 l    df *ABS*	00000000 gdtoa-gethex.c
00811b60 l     F .text	00000100 rshift
00000000 l    df *ABS*	00000000 gdtoa-hexnan.c
00000000 l    df *ABS*	00000000 strncmp.c
00000000 l    df *ABS*	00000000 vfprintf.c
0081bcea l     O .rodata	00000010 zeroes.4184
0081bcfa l     O .rodata	00000010 blanks.4183
00000000 l    df *ABS*	00000000 wcrtomb.c
00000000 l    df *ABS*	00000000 wctomb_r.c
00000000 l    df *ABS*	00000000 libgcc2.c
00000000 l    df *ABS*	00000000 libgcc2.c
00000000 l    df *ABS*	00000000 libgcc2.c
00000000 l    df *ABS*	00000000 libgcc2.c
00000000 l    df *ABS*	00000000 lib2-divmod.c
008147d0 l     F .text	0000006c udivmodsi4
00000000 l    df *ABS*	00000000 eqsf2.c
00000000 l    df *ABS*	00000000 gesf2.c
00000000 l    df *ABS*	00000000 lesf2.c
00000000 l    df *ABS*	00000000 adddf3.c
00000000 l    df *ABS*	00000000 divdf3.c
00000000 l    df *ABS*	00000000 eqdf2.c
00000000 l    df *ABS*	00000000 gedf2.c
00000000 l    df *ABS*	00000000 ledf2.c
00000000 l    df *ABS*	00000000 muldf3.c
00000000 l    df *ABS*	00000000 subdf3.c
00000000 l    df *ABS*	00000000 fixdfsi.c
00000000 l    df *ABS*	00000000 floatsidf.c
00000000 l    df *ABS*	00000000 floatunsidf.c
00000000 l    df *ABS*	00000000 truncdfsf2.c
00000000 l    df *ABS*	00000000 libgcc2.c
00000000 l    df *ABS*	00000000 libgcc2.c
00000000 l    df *ABS*	00000000 alt_close.c
00817278 l     F .text	00000050 alt_get_errno
00000000 l    df *ABS*	00000000 alt_dev.c
00817398 l     F .text	0000002c alt_dev_null_write
00000000 l    df *ABS*	00000000 alt_errno.c
00000000 l    df *ABS*	00000000 alt_fstat.c
008173c4 l     F .text	00000050 alt_get_errno
00000000 l    df *ABS*	00000000 alt_isatty.c
008174c4 l     F .text	00000050 alt_get_errno
00000000 l    df *ABS*	00000000 alt_load.c
008175b8 l     F .text	00000064 alt_load_section
00000000 l    df *ABS*	00000000 alt_lseek.c
0081769c l     F .text	00000050 alt_get_errno
00000000 l    df *ABS*	00000000 alt_main.c
00000000 l    df *ABS*	00000000 alt_malloc_lock.c
00000000 l    df *ABS*	00000000 alt_open.c
00817878 l     F .text	00000050 alt_get_errno
008178c8 l     F .text	000000cc alt_file_locked
00000000 l    df *ABS*	00000000 alt_read.c
00817aec l     F .text	00000050 alt_get_errno
00000000 l    df *ABS*	00000000 alt_release_fd.c
00000000 l    df *ABS*	00000000 alt_sbrk.c
0081dbbc l     O .rwdata	00000004 heap_end
00000000 l    df *ABS*	00000000 alt_usleep.c
00000000 l    df *ABS*	00000000 alt_write.c
00817d78 l     F .text	00000050 alt_get_errno
00000000 l    df *ABS*	00000000 alt_sys_init.c
00817ec0 l     F .text	00000038 alt_dev_reg
0081c8e0 l     O .rwdata	00001060 jtag_uart_0
0081d940 l     O .rwdata	00000120 lcd_display
0081da60 l     O .rwdata	000000c4 uart
0081db24 l     O .rwdata	00000030 audio_i2c_config
0081db54 l     O .rwdata	00000030 Audio
00000000 l    df *ABS*	00000000 altera_avalon_jtag_uart_fd.c
00000000 l    df *ABS*	00000000 altera_avalon_jtag_uart_init.c
008181f8 l     F .text	00000208 altera_avalon_jtag_uart_irq
00818400 l     F .text	000000a8 altera_avalon_jtag_uart_timeout
00000000 l    df *ABS*	00000000 altera_avalon_jtag_uart_ioctl.c
00000000 l    df *ABS*	00000000 altera_avalon_jtag_uart_read.c
00000000 l    df *ABS*	00000000 altera_avalon_jtag_uart_write.c
00000000 l    df *ABS*	00000000 altera_avalon_lcd_16207.c
0081dbc0 l     O .rwdata	00000004 colstart
00818a20 l     F .text	000000b4 lcd_write_command
00818ad4 l     F .text	000000d4 lcd_write_data
00818ba8 l     F .text	000000cc lcd_clear_screen
00818c74 l     F .text	000001e8 lcd_repaint_screen
00818e5c l     F .text	000000c8 lcd_scroll_up
00818f24 l     F .text	000002a0 lcd_handle_escape
008196ac l     F .text	000000ac alt_lcd_16207_timeout
00000000 l    df *ABS*	00000000 altera_avalon_lcd_16207_fd.c
00000000 l    df *ABS*	00000000 altera_avalon_timer_sc.c
008198f0 l     F .text	00000078 alt_avalon_timer_sc_irq
00000000 l    df *ABS*	00000000 altera_avalon_uart_fd.c
00000000 l    df *ABS*	00000000 altera_avalon_uart_init.c
00819b98 l     F .text	0000009c altera_avalon_uart_irq
00819c34 l     F .text	000000e0 altera_avalon_uart_rxirq
00819d14 l     F .text	00000144 altera_avalon_uart_txirq
00000000 l    df *ABS*	00000000 altera_avalon_uart_read.c
00819eac l     F .text	00000050 alt_get_errno
00000000 l    df *ABS*	00000000 altera_avalon_uart_write.c
0081a0d8 l     F .text	00000050 alt_get_errno
00000000 l    df *ABS*	00000000 alt_alarm_start.c
00000000 l    df *ABS*	00000000 alt_busy_sleep.c
00000000 l    df *ABS*	00000000 alt_dcache_flush_all.c
00000000 l    df *ABS*	00000000 alt_dev_llist_insert.c
0081a5b0 l     F .text	00000050 alt_get_errno
00000000 l    df *ABS*	00000000 alt_do_ctors.c
00000000 l    df *ABS*	00000000 alt_do_dtors.c
00000000 l    df *ABS*	00000000 alt_find_dev.c
00000000 l    df *ABS*	00000000 alt_find_file.c
00000000 l    df *ABS*	00000000 alt_get_fd.c
00000000 l    df *ABS*	00000000 alt_icache_flush_all.c
00000000 l    df *ABS*	00000000 alt_io_redirect.c
0081a9e4 l     F .text	000000c0 alt_open_fd
00000000 l    df *ABS*	00000000 alt_irq_register.c
00000000 l    df *ABS*	00000000 alt_irq_vars.c
00000000 l    df *ABS*	00000000 alt_tick.c
00000000 l    df *ABS*	00000000 altera_nios2_gen2_irq.c
00000000 l    df *ABS*	00000000 alt_icache_flush.c
00000000 l    df *ABS*	00000000 atexit.c
00000000 l    df *ABS*	00000000 exit.c
00000000 l    df *ABS*	00000000 memcmp.c
00000000 l    df *ABS*	00000000 __atexit.c
00000000 l    df *ABS*	00000000 __call_atexit.c
00000000 l    df *ABS*	00000000 alt_exit.c
0081f968 g     O .bss	00000004 alt_instruction_exception_handler
00802c50 g     F .text	00000018 putchar
0080a000 g     F .text	00000074 _mprec_log10
0080a0ec g     F .text	0000008c __any_on
00808a78 g     F .text	00000054 _isatty_r
0081ba10 g     O .rodata	00000028 __mprec_tinytens
008177c0 g     F .text	00000078 alt_main
00802c68 g     F .text	000000a8 _puts_r
0081f994 g     O .bss	00000100 alt_irq
00808bdc g     F .text	0000005c _lseek_r
0081dbd0 g       *ABS*	00000000 __flash_rwdata_start
0080850c g     F .text	000000ac __sflags
00815c48 g     F .text	00000084 .hidden __eqdf2
0081fa94 g       *ABS*	00000000 __alt_heap_start
00802c0c g     F .text	0000003c printf
008139c4 g     F .text	0000009c _wcrtomb_r
008031bc g     F .text	0000005c __sseek
008012d0 g     F .text	00000010 __sinit
00811768 g     F .text	00000138 __swbuf_r
00808afc g     F .text	0000007c _setlocale_r
00801138 g     F .text	00000068 __sfmoreglue
00810288 g     F .text	0000001c ungetc
00817858 g     F .text	00000020 __malloc_unlock
0080abb0 g     F .text	000015ec _strtod_r
00800340 g     F .text	0000008c GetInputString
0080cf3c g     F .text	000000f4 _sfread_r
0080907c g     F .text	0000015c memmove
008012b8 g     F .text	00000018 _cleanup
008091d8 g     F .text	000000a8 _Balloc
00815ccc g     F .text	000000e0 .hidden __gtdf2
0081ae68 g     F .text	00000020 altera_nios2_gen2_irq_init
00000000  w      *UND*	00000000 __errno
00800000 g     F .entry	0000001c __reset
0081f930 g     O .bss	00000004 edge_capture
00800020 g       *ABS*	00000000 __flash_exceptions_start
00801d1c g     F .text	00000058 _fstat_r
0081f934 g     O .bss	00000004 errno
00802f88 g     F .text	00000014 __srget
00803138 g     F .text	00000008 __seofread
0081298c g     F .text	00001038 ___svfiprintf_internal_r
0081f954 g     O .bss	00000004 alt_argv
00825b84 g       *ABS*	00000000 _gp
00817d48 g     F .text	00000030 usleep
0081c760 g     O .rwdata	00000180 alt_fd_list
00802008 g     F .text	00000070 _getc_r
00802078 g     F .text	00000088 getc
00802c48 g     F .text	00000008 _putchar_r
0081a75c g     F .text	00000090 alt_find_dev
00808f44 g     F .text	00000138 memcpy
00812494 g     F .text	0000026c __hexnan
00800f90 g     F .text	0000000c _cleanup_r
00816f08 g     F .text	000000d0 .hidden __floatsidf
0081aaa4 g     F .text	00000078 alt_io_redirect
00815dac g     F .text	000000e0 .hidden __ltdf2
0081b354 g       *ABS*	00000000 __DTOR_END__
00802d10 g     F .text	00000014 puts
0081af14 g     F .text	0000009c alt_exception_cause_generated_bad_addr
00808ce4 g     F .text	000000d8 mbrtowc
0080a8a8 g     F .text	00000074 __fpclassifyd
00809f5c g     F .text	000000a4 __ratio
00811688 g     F .text	00000024 __vfiprintf_internal
008185fc g     F .text	0000020c altera_avalon_jtag_uart_read
00000000  w      *UND*	00000000 malloc
00802be0 g     F .text	0000002c _printf_r
008148ec g     F .text	00000008 .hidden __udivsi3
00817514 g     F .text	000000a4 isatty
00808acc g     F .text	00000030 iswspace
0081ba60 g     O .rodata	000000c8 __mprec_tens
00808b78 g     F .text	0000000c __locale_charset
00814a28 g     F .text	000000b8 .hidden __lesf2
00813c0c g     F .text	00000074 .hidden __fixunsdfsi
0081ae88 g     F .text	0000008c alt_icache_flush
0081f940 g     O .bss	00000004 __malloc_top_pad
0080cecc g     F .text	00000070 __ssrefill_r
0080ca7c g     F .text	00000024 strtoul
0081db98 g     O .rwdata	00000004 __mb_cur_max
00808ba8 g     F .text	0000000c _localeconv_r
0080caa0 g     F .text	00000334 _strtoull_r
008095e4 g     F .text	0000003c __i2b
008085b8 g     F .text	000004c0 __sfvwrite_r
00802f9c g     F .text	00000054 _sbrk_r
0080a2e4 g     F .text	0000005c _read_r
0081dbb4 g     O .rwdata	00000004 alt_max_fd
00800be8 g     F .text	000000f0 _fclose_r
00800f50 g     F .text	00000030 fflush
0081f93c g     O .bss	00000004 __malloc_max_sbrked_mem
0081ab1c g     F .text	000001b0 alt_irq_register
008032b8 g     F .text	000016f8 __ssvfscanf_r
00814ae0 g     F .text	0000089c .hidden __adddf3
008148fc g     F .text	00000074 .hidden __nesf2
00809d04 g     F .text	0000011c __b2d
00814240 g     F .text	00000590 .hidden __umoddi3
008176ec g     F .text	000000d4 lseek
0081db84 g     O .rwdata	00000004 _global_impure_ptr
0080a340 g     F .text	00000568 _realloc_r
0081fa94 g       *ABS*	00000000 __bss_end
0081ad64 g     F .text	00000104 alt_tick
0081bbea g     O .rodata	00000100 __hexdig
00813c80 g     F .text	000005c0 .hidden __udivdi3
00811980 g     F .text	00000184 _fputwc_r
0081ba38 g     O .rodata	00000028 __mprec_bigtens
008093c8 g     F .text	00000104 __s2b
00816fd8 g     F .text	000000a4 .hidden __floatunsidf
00809aac g     F .text	00000060 __mcmp
00819af8 g     F .text	000000a0 altera_avalon_uart_init
008012f0 g     F .text	00000018 __fp_lock_all
0081accc g     F .text	00000098 alt_alarm_stop
0080c4fc g     F .text	00000024 strtol
0081f95c g     O .bss	00000004 alt_irq_active
008018b4 g     F .text	00000444 _fseeko_r
008000fc g     F .exceptions	000000d4 alt_irq_handler
0081c738 g     O .rwdata	00000028 alt_dev_null
0081a56c g     F .text	00000044 alt_dcache_flush_all
008094cc g     F .text	00000068 __hi0bits
00816e80 g     F .text	00000088 .hidden __fixdfsi
0080c19c g     F .text	0000001c strtod
0081dbd0 g       *ABS*	00000000 __ram_rwdata_end
0081dbac g     O .rwdata	00000008 alt_dev_list
00817dc8 g     F .text	000000f8 write
0080a178 g     F .text	000000a0 _putc_r
00814970 g     F .text	000000b8 .hidden __gtsf2
0081be84 g       *ABS*	00000000 __ram_rodata_end
00817414 g     F .text	000000b0 fstat
00801454 g     F .text	00000024 fprintf
00815dac g     F .text	000000e0 .hidden __ledf2
0080981c g     F .text	00000140 __pow5mult
008103b8 g     F .text	000012d0 ___vfiprintf_internal_r
0081f94c g     O .bss	00000004 __nlocale_changed
008148f4 g     F .text	00000008 .hidden __umodsi3
0081fa94 g       *ABS*	00000000 end
008191c4 g     F .text	000004e8 altera_avalon_lcd_16207_write
00801cf8 g     F .text	00000024 fseeko
0081a128 g     F .text	000001ac altera_avalon_uart_write
00801890 g     F .text	00000024 fseek
00818140 g     F .text	000000b8 altera_avalon_jtag_uart_init
008001d0 g     F .exceptions	00000074 alt_instruction_exception_entry
0081b354 g       *ABS*	00000000 __CTOR_LIST__
01000000 g       *ABS*	00000000 __alt_stack_pointer
00819968 g     F .text	00000080 alt_avalon_timer_sc_init
00819a48 g     F .text	00000060 altera_avalon_uart_write_fd
00817214 g     F .text	00000064 .hidden __clzsi2
00819aa8 g     F .text	00000050 altera_avalon_uart_close_fd
00818808 g     F .text	00000218 altera_avalon_jtag_uart_write
008012e0 g     F .text	00000004 __sfp_lock_acquire
00808e5c g     F .text	000000e8 memchr
008049b0 g     F .text	00001f50 ___vfprintf_internal_r
0080a9e4 g     F .text	00000058 _sprintf_r
0080159c g     F .text	000002f0 _free_r
00808b84 g     F .text	00000010 __locale_mb_cur_max
0081b18c g     F .text	00000194 __call_exitprocs
00802f14 g     F .text	00000074 __srget_r
0080cdd4 g     F .text	000000f8 _sungetc_r
0081f948 g     O .bss	00000004 __mlocale_changed
0081db8c g     O .rwdata	00000004 __malloc_sbrk_base
00800244 g     F .text	0000004c _start
0081f960 g     O .bss	00000004 _alt_tick_rate
0080c520 g     F .text	000002f4 _strtoll_r
0080995c g     F .text	00000150 __lshift
0081f964 g     O .bss	00000004 _alt_nticks
00817b3c g     F .text	000000fc read
00817f2c g     F .text	000000b0 alt_sys_init
008127c0 g     F .text	000001cc __ssprint_r
00802b84 g     F .text	0000005c _open_r
0081b078 g     F .text	00000114 __register_exitproc
00812700 g     F .text	000000c0 strncmp
00809620 g     F .text	000001fc __multiply
008184a8 g     F .text	00000068 altera_avalon_jtag_uart_close
0081be84 g       *ABS*	00000000 __ram_rwdata_start
0081b354 g       *ABS*	00000000 __ram_rodata_start
0081f96c g     O .bss	00000028 __malloc_current_mallinfo
008148fc g     F .text	00000074 .hidden __eqsf2
00809e20 g     F .text	0000013c __d2b
00817fdc g     F .text	00000060 altera_avalon_jtag_uart_read_fd
0080c814 g     F .text	00000268 _strtoul_r
0081a900 g     F .text	000000b4 alt_get_fd
0081a414 g     F .text	00000158 alt_busy_sleep
00806b90 g     F .text	00000054 _close_r
0081affc g     F .text	0000007c memcmp
0081809c g     F .text	00000050 altera_avalon_jtag_uart_close_fd
0081fa94 g       *ABS*	00000000 __alt_stack_base
008180ec g     F .text	00000054 altera_avalon_jtag_uart_ioctl_fd
00801efc g     F .text	000000cc _fwrite_r
00802ff0 g     F .text	0000007c sscanf
00806a3c g     F .text	00000154 __swsetup_r
0081537c g     F .text	000008cc .hidden __divdf3
008011a0 g     F .text	00000118 __sfp
0080a074 g     F .text	00000078 __copybits
0081c2b8 g     O .rwdata	00000408 __malloc_av_
008012ec g     F .text	00000004 __sinit_lock_release
00815e8c g     F .text	00000724 .hidden __muldf3
008030e4 g     F .text	00000054 __sread
0081a7ec g     F .text	00000114 alt_find_file
0081a600 g     F .text	000000a4 alt_dev_llist_insert
00817838 g     F .text	00000020 __malloc_lock
0080142c g     F .text	00000028 _fprintf_r
00817c98 g     F .text	000000b0 sbrk
0080e09c g     F .text	00001f90 ___svfprintf_internal_r
00800ef4 g     F .text	0000005c _fflush_r
008118bc g     F .text	000000c4 _calloc_r
00801410 g     F .text	0000001c fopen
0081f91c g       *ABS*	00000000 __bss_start
00802a60 g     F .text	00000124 memset
00800b84 g     F .text	00000064 main
0081f958 g     O .bss	00000004 alt_envp
0081f938 g     O .bss	00000004 __malloc_max_total_mem
0081803c g     F .text	00000060 altera_avalon_jtag_uart_write_fd
008118a0 g     F .text	0000001c __swbuf
00814a28 g     F .text	000000b8 .hidden __ltsf2
00819758 g     F .text	00000138 altera_avalon_lcd_16207_init
00803218 g     F .text	00000008 __sclose
01000000 g       *ABS*	00000000 __alt_heap_limit
00800cd8 g     F .text	00000014 fclose
0080c2bc g     F .text	00000240 _strtol_r
0081707c g     F .text	00000198 .hidden __truncdfsf2
00806de4 g     F .text	00001728 _dtoa_r
008022b8 g     F .text	000007a8 _malloc_r
00813b20 g     F .text	00000030 __ascii_wctomb
0081dbb8 g     O .rwdata	00000004 alt_errno
0081002c g     F .text	000000d4 __submore
00801d74 g     F .text	000000c4 _fwalk
00808e00 g     F .text	0000005c _mbtowc_r
0080a218 g     F .text	000000cc putc
0081483c g     F .text	00000054 .hidden __divsi3
00801478 g     F .text	00000124 _malloc_trim_r
0081b354 g       *ABS*	00000000 __CTOR_END__
0080aaa8 g     F .text	000000a4 strcmp
0081b354 g       *ABS*	00000000 __flash_rodata_start
0081b354 g       *ABS*	00000000 __DTOR_LIST__
00815c48 g     F .text	00000084 .hidden __nedf2
00817ef8 g     F .text	00000034 alt_irq_init
00817c38 g     F .text	00000060 alt_release_fd
0080aa3c g     F .text	0000006c sprintf
0081bd0a g     O .rodata	00000100 .hidden __clz_tab
0081f944 g     O .bss	00000004 _PathLocale
0080c1b8 g     F .text	00000104 strtof
0081afb0 g     F .text	00000014 atexit
00814970 g     F .text	000000b8 .hidden __gesf2
008069e0 g     F .text	0000005c _write_r
00808bb4 g     F .text	0000001c setlocale
0080a9dc g     F .text	00000008 nanf
0081db88 g     O .rwdata	00000004 _impure_ptr
0081f950 g     O .bss	00000004 alt_argc
00800cec g     F .text	00000208 __sflush_r
00808c38 g     F .text	000000ac _mbrtowc_r
0081a700 g     F .text	0000005c _do_dtors
00808ba0 g     F .text	00000008 __locale_cjk_lang
0080188c g     F .text	00000004 _fseek_r
00802d40 g     F .text	000001d4 __srefill_r
00800000 g       *ABS*	00000000 __alt_mem_sdram_0
00800020 g       .exceptions	00000000 alt_irq_entry
00808dbc g     F .text	00000044 __ascii_mbtowc
00809ca4 g     F .text	00000060 __ulp
00801308 g     F .text	00000018 __fp_unlock_all
00819890 g     F .text	00000060 altera_avalon_lcd_16207_write_fd
0081dba4 g     O .rwdata	00000008 alt_fs_list
0080d030 g     F .text	0000106c __ssvfiscanf_r
00800020 g       *ABS*	00000000 __ram_exceptions_start
00808bd0 g     F .text	0000000c localeconv
00801fc8 g     F .text	00000040 fwrite
0080306c g     F .text	00000078 _sscanf_r
0081dbd0 g       *ABS*	00000000 _edata
008199e8 g     F .text	00000060 altera_avalon_uart_read_fd
0081fa94 g       *ABS*	00000000 _end
00800244 g       *ABS*	00000000 __ram_exceptions_end
00818510 g     F .text	000000ec altera_avalon_jtag_uart_ioctl
00803140 g     F .text	0000007c __swrite
0081db90 g     O .rwdata	00000004 __malloc_trim_threshold
00808b94 g     F .text	0000000c __locale_msgcharset
0081afc4 g     F .text	00000038 exit
00801e38 g     F .text	000000c4 _fwalk_reent
00809b0c g     F .text	00000198 __mdiff
00814890 g     F .text	0000005c .hidden __modsi3
0081db94 g     O .rwdata	00000004 __ctype_ptr__
01000000 g       *ABS*	00000000 __alt_data_end
00800020 g     F .exceptions	00000000 alt_exception
008012e4 g     F .text	00000004 __sfp_lock_release
0080a91c g     F .text	000000c0 __sccl
0081b766 g     O .rodata	00000101 _ctype_
0081db9c g     O .rwdata	00000004 __mbtowc
00819e58 g     F .text	00000054 altera_avalon_uart_close
00801320 g     F .text	000000f0 _fopen_r
0081b320 g     F .text	00000034 _exit
0081a2d4 g     F .text	00000140 alt_alarm_start
00813bac g     F .text	00000060 .hidden __muldi3
00802100 g     F .text	000001b8 __smakebuf_r
00803220 g     F .text	00000098 strlen
00817994 g     F .text	00000158 open
00815ccc g     F .text	000000e0 .hidden __gedf2
00811c60 g     F .text	00000834 __gethex
0081dba0 g     O .rwdata	00000004 __wctomb
008103a0 g     F .text	00000018 __sprint_r
0081a9b4 g     F .text	00000030 alt_icache_flush_all
0081dbc4 g     O .rwdata	00000004 alt_priority_mask
00806900 g     F .text	00000024 __vfprintf_internal
00819efc g     F .text	000001dc altera_avalon_uart_read
00813b50 g     F .text	0000005c _wctomb_r
008165b0 g     F .text	000008d0 .hidden __subdf3
00809534 g     F .text	000000b0 __lo0bits
0081dbc8 g     O .rwdata	00000008 alt_alarm_list
00810100 g     F .text	00000188 _ungetc_r
0081a6a4 g     F .text	0000005c _do_ctors
00813a60 g     F .text	000000c0 wcrtomb
008172c8 g     F .text	000000d0 close
0081761c g     F .text	00000080 alt_load
00811b04 g     F .text	0000005c fputwc
00000000  w      *UND*	00000000 free
008012e8 g     F .text	00000004 __sinit_lock_acquire
008092a8 g     F .text	00000120 __multadd
00809280 g     F .text	00000028 _Bfree



Disassembly of section .entry:

00800000 <__reset>:
#if NIOS2_ICACHE_SIZE > 0 && defined(ALT_ALLOW_CODE_AT_RESET) && (!defined(ALT_SIM_OPTIMIZE) || defined(NIOS2_ECC_PRESENT))
    /* Assume the instruction cache size is always a power of two. */
#if NIOS2_ICACHE_SIZE > 0x8000
    movhi r2, %hi(NIOS2_ICACHE_SIZE)
#else
    movui r2, NIOS2_ICACHE_SIZE
  800000:	00840014 	movui	r2,4096
#endif

0:
    initi r2
  800004:	1001483a 	initi	r2
    addi r2, r2, -NIOS2_ICACHE_LINE_SIZE
  800008:	10bff804 	addi	r2,r2,-32
    bgt r2, zero, 0b
  80000c:	00bffd16 	blt	zero,r2,800004 <__alt_data_end+0xff800004>
 * Jump to the _start entry point in the .text section if reset code
 * is allowed or if optimizing for RTL simulation.
 */
#if defined(ALT_ALLOW_CODE_AT_RESET) || defined(ALT_SIM_OPTIMIZE)
    /* Jump to the _start entry point in the .text section. */
    movhi r1, %hi(_start)
  800010:	00402034 	movhi	at,128
    ori r1, r1, %lo(_start)
  800014:	08409114 	ori	at,at,580
    jmp r1
  800018:	0800683a 	jmp	at
  80001c:	00000000 	call	0 <__alt_mem_sdram_0-0x800000>

Disassembly of section .exceptions:

00800020 <alt_exception>:

#else /* ALT_EXCEPTION_STACK disabled */
        /* 
         * Reserve space on normal stack for registers about to be pushed.
         */
        addi  sp, sp, -76
  800020:	deffed04 	addi	sp,sp,-76
         * documentation for details).
         *
         * Leave a gap in the stack frame at 4(sp) for the muldiv handler to
         * store zero into.
         */
        stw   ra,  0(sp)
  800024:	dfc00015 	stw	ra,0(sp)
        stw   r1,   8(sp)
  800028:	d8400215 	stw	at,8(sp)
        stw   r2,  12(sp)
  80002c:	d8800315 	stw	r2,12(sp)
        stw   r3,  16(sp)
  800030:	d8c00415 	stw	r3,16(sp)
        stw   r4,  20(sp)
  800034:	d9000515 	stw	r4,20(sp)
        stw   r5,  24(sp)
  800038:	d9400615 	stw	r5,24(sp)
        stw   r6,  28(sp)
  80003c:	d9800715 	stw	r6,28(sp)
        stw   r7,  32(sp)
  800040:	d9c00815 	stw	r7,32(sp)
        rdctl r5, estatus   /* Read early to avoid usage stall */
  800044:	000b307a 	rdctl	r5,estatus
        stw   r8,  36(sp)
  800048:	da000915 	stw	r8,36(sp)
        stw   r9,  40(sp)
  80004c:	da400a15 	stw	r9,40(sp)
        stw   r10, 44(sp)
  800050:	da800b15 	stw	r10,44(sp)
        stw   r11, 48(sp)
  800054:	dac00c15 	stw	r11,48(sp)
        stw   r12, 52(sp)
  800058:	db000d15 	stw	r12,52(sp)
        stw   r13, 56(sp)
  80005c:	db400e15 	stw	r13,56(sp)
        stw   r14, 60(sp)
  800060:	db800f15 	stw	r14,60(sp)
        stw   r15, 64(sp)
  800064:	dbc01015 	stw	r15,64(sp)
        /*
         * ea-4 contains the address of the instruction being executed
         * when the exception occured. For interrupt exceptions, we will
         * will be re-issue the isntruction. Store it in 72(sp)
         */
        stw   r5,  68(sp)  /* estatus */
  800068:	d9401115 	stw	r5,68(sp)
        addi  r15, ea, -4  /* instruction that caused exception */
  80006c:	ebffff04 	addi	r15,ea,-4
        stw   r15,  72(sp)
  800070:	dbc01215 	stw	r15,72(sp)
#else
        /*
         * Test to see if the exception was a software exception or caused 
         * by an external interrupt, and vector accordingly.
         */
        rdctl r4, ipending
  800074:	0009313a 	rdctl	r4,ipending
        andi  r2, r5, 1
  800078:	2880004c 	andi	r2,r5,1
        beq   r2, zero, .Lnot_irq
  80007c:	10000326 	beq	r2,zero,80008c <alt_exception+0x6c>
        beq   r4, zero, .Lnot_irq
  800080:	20000226 	beq	r4,zero,80008c <alt_exception+0x6c>
        /*
         * Now that all necessary registers have been preserved, call 
         * alt_irq_handler() to process the interrupts.
         */

        call alt_irq_handler
  800084:	08000fc0 	call	8000fc <alt_irq_handler>

        .section .exceptions.irqreturn, "xa"

        br    .Lexception_exit
  800088:	00000706 	br	8000a8 <alt_exception+0x88>
         * upon completion, so we write ea (address of instruction *after*
         * the one where the exception occured) into 72(sp). The actual
         * instruction that caused the exception is written in r2, which these
         * handlers will utilize.
         */
        stw   ea,  72(sp)  /* Don't re-issue */
  80008c:	df401215 	stw	ea,72(sp)
        ldhu.n  r2, 0(r4)
        ldhu.n  r3, 2(r4)
        slli.n  r3, r3, 16
        or.n    r2, r2, r3 /* Instruction that caused exception */
#else
        ldw   r2, -4(ea)   /* Instruction that caused exception */
  800090:	e8bfff17 	ldw	r2,-4(ea)
         * debugger is present) or go into an infinite loop since the
         * handling behavior is undefined; in that case we will not return here.
         */

        /* Load exception-causing address as first argument (r4) */
        addi   r4, ea, -4
  800094:	e93fff04 	addi	r4,ea,-4

        /* Call the instruction-exception entry */
        call   alt_instruction_exception_entry
  800098:	08001d00 	call	8001d0 <alt_instruction_exception_entry>
         * instruction
         *
         * Return code was 0: Skip. The instruction after the exception is
         * already stored in 72(sp).
         */
        bne   r2, r0, .Lexception_exit
  80009c:	1000021e 	bne	r2,zero,8000a8 <alt_exception+0x88>

        /*
         * Otherwise, modify 72(sp) to re-issue the instruction that caused the
         * exception.
         */
        addi  r15, ea, -4  /* instruction that caused exception */
  8000a0:	ebffff04 	addi	r15,ea,-4
        stw   r15,  72(sp)
  8000a4:	dbc01215 	stw	r15,72(sp)
        /* 
         * Restore the saved registers, so that all general purpose registers 
         * have been restored to their state at the time the interrupt occured.
         */

        ldw   r5,  68(sp)
  8000a8:	d9401117 	ldw	r5,68(sp)
        ldw   ea,  72(sp)  /* This becomes the PC once eret is executed */
  8000ac:	df401217 	ldw	ea,72(sp)
        ldw   ra,   0(sp)
  8000b0:	dfc00017 	ldw	ra,0(sp)

        wrctl estatus, r5
  8000b4:	2801707a 	wrctl	estatus,r5

        ldw   r1,   8(sp)
  8000b8:	d8400217 	ldw	at,8(sp)
        ldw   r2,  12(sp)
  8000bc:	d8800317 	ldw	r2,12(sp)
        ldw   r3,  16(sp)
  8000c0:	d8c00417 	ldw	r3,16(sp)
        ldw   r4,  20(sp)
  8000c4:	d9000517 	ldw	r4,20(sp)
        ldw   r5,  24(sp)
  8000c8:	d9400617 	ldw	r5,24(sp)
        ldw   r6,  28(sp)
  8000cc:	d9800717 	ldw	r6,28(sp)
        ldw   r7,  32(sp)
  8000d0:	d9c00817 	ldw	r7,32(sp)

#if defined(ALT_EXCEPTION_STACK) && defined(ALT_STACK_CHECK)
        ldw   et, %gprel(alt_exception_old_stack_limit)(gp)
#endif

        ldw   r8,  36(sp)
  8000d4:	da000917 	ldw	r8,36(sp)
        ldw   r9,  40(sp)
  8000d8:	da400a17 	ldw	r9,40(sp)
        ldw   r10, 44(sp)
  8000dc:	da800b17 	ldw	r10,44(sp)
        ldw   r11, 48(sp)
  8000e0:	dac00c17 	ldw	r11,48(sp)
        ldw   r12, 52(sp)
  8000e4:	db000d17 	ldw	r12,52(sp)
        ldw   r13, 56(sp)
  8000e8:	db400e17 	ldw	r13,56(sp)
        ldw   r14, 60(sp)
  8000ec:	db800f17 	ldw	r14,60(sp)
        ldw   r15, 64(sp)
  8000f0:	dbc01017 	ldw	r15,64(sp)
        stw   et, %gprel(alt_stack_limit_value)(gp)
        stw   zero, %gprel(alt_exception_old_stack_limit)(gp)
#endif /* ALT_STACK_CHECK */
        ldw   sp,  76(sp)
#else /* ALT_EXCEPTION_STACK disabled */
        addi  sp, sp, 76
  8000f4:	dec01304 	addi	sp,sp,76

        /*
         * Return to the interrupted instruction.
         */

        eret
  8000f8:	ef80083a 	eret

008000fc <alt_irq_handler>:
 * instruction is present if the macro ALT_CI_INTERRUPT_VECTOR defined.
 */

void alt_irq_handler (void) __attribute__ ((section (".exceptions")));
void alt_irq_handler (void)
{
  8000fc:	defff904 	addi	sp,sp,-28
  800100:	dfc00615 	stw	ra,24(sp)
  800104:	df000515 	stw	fp,20(sp)
  800108:	df000504 	addi	fp,sp,20
  
  /*
   * Notify the operating system that we are at interrupt level.
   */ 
  
  ALT_OS_INT_ENTER();
  80010c:	0001883a 	nop
#ifndef NIOS2_EIC_PRESENT
static ALT_INLINE alt_u32 ALT_ALWAYS_INLINE alt_irq_pending (void)
{
  alt_u32 active;

  NIOS2_READ_IPENDING (active);
  800110:	0005313a 	rdctl	r2,ipending
  800114:	e0bffe15 	stw	r2,-8(fp)

  return active;
  800118:	e0bffe17 	ldw	r2,-8(fp)
   * Consider the case where the high priority interupt is asserted during
   * the interrupt entry sequence for a lower priority interrupt to see why
   * this is the case.
   */

  active = alt_irq_pending ();
  80011c:	e0bffb15 	stw	r2,-20(fp)

  do
  {
    i = 0;
  800120:	e03ffd15 	stw	zero,-12(fp)
    mask = 1;
  800124:	00800044 	movi	r2,1
  800128:	e0bffc15 	stw	r2,-16(fp)
     * called to clear the interrupt condition.
     */

    do
    {
      if (active & mask)
  80012c:	e0fffb17 	ldw	r3,-20(fp)
  800130:	e0bffc17 	ldw	r2,-16(fp)
  800134:	1884703a 	and	r2,r3,r2
  800138:	10001526 	beq	r2,zero,800190 <alt_irq_handler+0x94>
      { 
#ifdef ALT_ENHANCED_INTERRUPT_API_PRESENT
        alt_irq[i].handler(alt_irq[i].context); 
#else
        alt_irq[i].handler(alt_irq[i].context, i); 
  80013c:	008020b4 	movhi	r2,130
  800140:	10be6504 	addi	r2,r2,-1644
  800144:	e0fffd17 	ldw	r3,-12(fp)
  800148:	180690fa 	slli	r3,r3,3
  80014c:	10c5883a 	add	r2,r2,r3
  800150:	10c00017 	ldw	r3,0(r2)
  800154:	008020b4 	movhi	r2,130
  800158:	10be6504 	addi	r2,r2,-1644
  80015c:	e13ffd17 	ldw	r4,-12(fp)
  800160:	200890fa 	slli	r4,r4,3
  800164:	21000104 	addi	r4,r4,4
  800168:	1105883a 	add	r2,r2,r4
  80016c:	10800017 	ldw	r2,0(r2)
  800170:	1009883a 	mov	r4,r2
  800174:	e17ffd17 	ldw	r5,-12(fp)
  800178:	183ee83a 	callr	r3
#endif
        break;
  80017c:	0001883a 	nop
#ifndef NIOS2_EIC_PRESENT
static ALT_INLINE alt_u32 ALT_ALWAYS_INLINE alt_irq_pending (void)
{
  alt_u32 active;

  NIOS2_READ_IPENDING (active);
  800180:	0005313a 	rdctl	r2,ipending
  800184:	e0bfff15 	stw	r2,-4(fp)

  return active;
  800188:	e0bfff17 	ldw	r2,-4(fp)
  80018c:	00000706 	br	8001ac <alt_irq_handler+0xb0>
      }
      mask <<= 1;
  800190:	e0bffc17 	ldw	r2,-16(fp)
  800194:	1085883a 	add	r2,r2,r2
  800198:	e0bffc15 	stw	r2,-16(fp)
      i++;
  80019c:	e0bffd17 	ldw	r2,-12(fp)
  8001a0:	10800044 	addi	r2,r2,1
  8001a4:	e0bffd15 	stw	r2,-12(fp)

    } while (1);
  8001a8:	003fe006 	br	80012c <__alt_data_end+0xff80012c>

    active = alt_irq_pending ();
  8001ac:	e0bffb15 	stw	r2,-20(fp)
    
  } while (active);
  8001b0:	e0bffb17 	ldw	r2,-20(fp)
  8001b4:	103fda1e 	bne	r2,zero,800120 <__alt_data_end+0xff800120>

  /*
   * Notify the operating system that interrupt processing is complete.
   */ 

  ALT_OS_INT_EXIT();
  8001b8:	0001883a 	nop
}
  8001bc:	e037883a 	mov	sp,fp
  8001c0:	dfc00117 	ldw	ra,4(sp)
  8001c4:	df000017 	ldw	fp,0(sp)
  8001c8:	dec00204 	addi	sp,sp,8
  8001cc:	f800283a 	ret

008001d0 <alt_instruction_exception_entry>:
 * that handler if it has been registered. Absent a handler, it will
 * break break or hang as discussed below.
 */
int 
alt_instruction_exception_entry (alt_u32 exception_pc)
{
  8001d0:	defffb04 	addi	sp,sp,-20
  8001d4:	dfc00415 	stw	ra,16(sp)
  8001d8:	df000315 	stw	fp,12(sp)
  8001dc:	df000304 	addi	fp,sp,12
  8001e0:	e13fff15 	stw	r4,-4(fp)
 * NIOS2_EXCEPTION_CAUSE_NOT_PRESENT. Your handling routine should
 * check the validity of the cause argument before proceeding.
 */
#ifdef NIOS2_HAS_EXTRA_EXCEPTION_INFO
  /* Get exception cause & "badaddr" */
  NIOS2_READ_EXCEPTION(cause);
  8001e4:	000531fa 	rdctl	r2,exception
  8001e8:	e0bffd15 	stw	r2,-12(fp)
  cause = ( (cause & NIOS2_EXCEPTION_REG_CAUSE_MASK) >>
  8001ec:	e0bffd17 	ldw	r2,-12(fp)
  8001f0:	10801f0c 	andi	r2,r2,124
  8001f4:	1004d0ba 	srli	r2,r2,2
  8001f8:	e0bffd15 	stw	r2,-12(fp)
              NIOS2_EXCEPTION_REG_CAUSE_OFST );

  NIOS2_READ_BADADDR(badaddr);
  8001fc:	0005333a 	rdctl	r2,badaddr
  800200:	e0bffe15 	stw	r2,-8(fp)
#else
  cause = NIOS2_EXCEPTION_CAUSE_NOT_PRESENT;
  badaddr = 0;
#endif /* NIOS2_HAS_EXTRA_EXCEPTION_INFO */

  if(alt_instruction_exception_handler) {
  800204:	d0a77917 	ldw	r2,-25116(gp)
  800208:	10000726 	beq	r2,zero,800228 <alt_instruction_exception_entry+0x58>
     * Call handler. Its return value indicates whether the exception-causing
     * instruction should be re-issued. The code that called us,
     * alt_eceptions_entry.S, will look at this value and adjust the ea
     * register as necessary
     */
    return alt_instruction_exception_handler(cause, exception_pc, badaddr);
  80020c:	d0a77917 	ldw	r2,-25116(gp)
  800210:	e0fffd17 	ldw	r3,-12(fp)
  800214:	1809883a 	mov	r4,r3
  800218:	e17fff17 	ldw	r5,-4(fp)
  80021c:	e1bffe17 	ldw	r6,-8(fp)
  800220:	103ee83a 	callr	r2
  800224:	00000206 	br	800230 <alt_instruction_exception_entry+0x60>
   *    (a peripheral which negates its interrupt output before its
   *    interrupt handler has been executed will cause spurious interrupts)
   */
  else {
#ifdef NIOS2_HAS_DEBUG_STUB
    NIOS2_BREAK();
  800228:	003da03a 	break	0
      ;
#endif /* NIOS2_HAS_DEBUG_STUB */
  }

  /* We should not get here. Remove compiler warning. */
  return NIOS2_EXCEPTION_RETURN_REISSUE_INST;
  80022c:	0005883a 	mov	r2,zero
}
  800230:	e037883a 	mov	sp,fp
  800234:	dfc00117 	ldw	ra,4(sp)
  800238:	df000017 	ldw	fp,0(sp)
  80023c:	dec00204 	addi	sp,sp,8
  800240:	f800283a 	ret

Disassembly of section .text:

00800244 <_start>:

    /* Assume the data cache size is always a power of two. */
#if NIOS2_DCACHE_SIZE > 0x8000
    movhi r2, %hi(NIOS2_DCACHE_SIZE)
#else
    movui r2, NIOS2_DCACHE_SIZE
  800244:	00820014 	movui	r2,2048
#endif

0:
    initd 0(r2)
  800248:	10000033 	initd	0(r2)
#ifdef NIOS2_ECC_PRESENT
    addi r2, r2, -4
#else
    addi r2, r2, -NIOS2_DCACHE_LINE_SIZE
  80024c:	10bff804 	addi	r2,r2,-32
#endif
    bgt r2, zero, 0b
  800250:	00bffd16 	blt	zero,r2,800248 <__alt_data_end+0xff800248>

    /*
     * Now that the caches are initialized, set up the stack pointer and global pointer.
     * The values provided by the linker are assumed to be correctly aligned.
     */
    movhi sp, %hi(__alt_stack_pointer)
  800254:	06c04034 	movhi	sp,256
    ori sp, sp, %lo(__alt_stack_pointer)
  800258:	dec00014 	ori	sp,sp,0
    movhi gp, %hi(_gp)
  80025c:	068020b4 	movhi	gp,130
    ori gp, gp, %lo(_gp)
  800260:	d696e114 	ori	gp,gp,23428
 */
#ifndef ALT_SIM_OPTIMIZE
    /* Log that the BSS is about to be cleared. */
    ALT_LOG_PUTS(alt_log_msg_bss)

    movhi r2, %hi(__bss_start)
  800264:	00802074 	movhi	r2,129
    ori r2, r2, %lo(__bss_start)
  800268:	10be4714 	ori	r2,r2,63772

    movhi r3, %hi(__bss_end)
  80026c:	00c02074 	movhi	r3,129
    ori r3, r3, %lo(__bss_end)
  800270:	18fea514 	ori	r3,r3,64148

    beq r2, r3, 1f
  800274:	10c00326 	beq	r2,r3,800284 <_start+0x40>

0:
    stw zero, (r2)
  800278:	10000015 	stw	zero,0(r2)
    addi r2, r2, 4
  80027c:	10800104 	addi	r2,r2,4
    bltu r2, r3, 0b
  800280:	10fffd36 	bltu	r2,r3,800278 <__alt_data_end+0xff800278>
     * section aren't defined until alt_load() has been called).
     */
    mov   et, zero
#endif

    call alt_load
  800284:	081761c0 	call	81761c <alt_load>

    /* Log that alt_main is about to be called. */
    ALT_LOG_PUTS(alt_log_msg_alt_main)

    /* Call the C entry point. It should never return. */
    call alt_main
  800288:	08177c00 	call	8177c0 <alt_main>

0080028c <alt_after_alt_main>:

    /* Wait in infinite loop in case alt_main does return. */
alt_after_alt_main:
    br alt_after_alt_main
  80028c:	003fff06 	br	80028c <__alt_data_end+0xff80028c>

00800290 <MenuBegin>:
 * 
 * Function to set the Menu "header".
 */

static void MenuBegin( char *title )
{
  800290:	defffd04 	addi	sp,sp,-12
  800294:	dfc00215 	stw	ra,8(sp)
  800298:	df000115 	stw	fp,4(sp)
  80029c:	df000104 	addi	fp,sp,4
  8002a0:	e13fff15 	stw	r4,-4(fp)
  printf("\n\n");
  8002a4:	010020b4 	movhi	r4,130
  8002a8:	212cd504 	addi	r4,r4,-19628
  8002ac:	0802d100 	call	802d10 <puts>
  printf("----------------------------------\n");
  8002b0:	010020b4 	movhi	r4,130
  8002b4:	212cd604 	addi	r4,r4,-19624
  8002b8:	0802d100 	call	802d10 <puts>
  printf("Nios II Board Diagnostics\n");
  8002bc:	010020b4 	movhi	r4,130
  8002c0:	212cdf04 	addi	r4,r4,-19588
  8002c4:	0802d100 	call	802d10 <puts>
  printf("----------------------------------\n");
  8002c8:	010020b4 	movhi	r4,130
  8002cc:	212cd604 	addi	r4,r4,-19624
  8002d0:	0802d100 	call	802d10 <puts>
  printf(" %s\n",title);
  8002d4:	010020b4 	movhi	r4,130
  8002d8:	212ce604 	addi	r4,r4,-19560
  8002dc:	e17fff17 	ldw	r5,-4(fp)
  8002e0:	0802c0c0 	call	802c0c <printf>
}
  8002e4:	e037883a 	mov	sp,fp
  8002e8:	dfc00117 	ldw	ra,4(sp)
  8002ec:	df000017 	ldw	fp,0(sp)
  8002f0:	dec00204 	addi	sp,sp,8
  8002f4:	f800283a 	ret

008002f8 <MenuItem>:
 *    (defined by 'string').
 *
 **********************************************************************/

static void MenuItem( char letter, char *name )
{
  8002f8:	defffc04 	addi	sp,sp,-16
  8002fc:	dfc00315 	stw	ra,12(sp)
  800300:	df000215 	stw	fp,8(sp)
  800304:	df000204 	addi	fp,sp,8
  800308:	2005883a 	mov	r2,r4
  80030c:	e17fff15 	stw	r5,-4(fp)
  800310:	e0bffe05 	stb	r2,-8(fp)
  printf("     %c:  %s\n" ,letter, name);
  800314:	e0bffe07 	ldb	r2,-8(fp)
  800318:	010020b4 	movhi	r4,130
  80031c:	212ce804 	addi	r4,r4,-19552
  800320:	100b883a 	mov	r5,r2
  800324:	e1bfff17 	ldw	r6,-4(fp)
  800328:	0802c0c0 	call	802c0c <printf>
}
  80032c:	e037883a 	mov	sp,fp
  800330:	dfc00117 	ldw	ra,4(sp)
  800334:	df000017 	ldw	fp,0(sp)
  800338:	dec00204 	addi	sp,sp,8
  80033c:	f800283a 	ret

00800340 <GetInputString>:
*           returns the string, minus any '\r' characters it 
*           encounters.
*
******************************************************************/
void GetInputString( char* entry, int size, FILE * stream )
{
  800340:	defff904 	addi	sp,sp,-28
  800344:	dfc00615 	stw	ra,24(sp)
  800348:	df000515 	stw	fp,20(sp)
  80034c:	df000504 	addi	fp,sp,20
  800350:	e13ffd15 	stw	r4,-12(fp)
  800354:	e17ffe15 	stw	r5,-8(fp)
  800358:	e1bfff15 	stw	r6,-4(fp)
  int i;
  int ch = 0;
  80035c:	e03ffc15 	stw	zero,-16(fp)
  
  for(i = 0; (ch != '\n') && (i < size); )
  800360:	e03ffb15 	stw	zero,-20(fp)
  800364:	00000e06 	br	8003a0 <GetInputString+0x60>
  {
    if( (ch = getc(stream)) != '\r')
  800368:	e13fff17 	ldw	r4,-4(fp)
  80036c:	08020780 	call	802078 <getc>
  800370:	e0bffc15 	stw	r2,-16(fp)
  800374:	e0bffc17 	ldw	r2,-16(fp)
  800378:	10800360 	cmpeqi	r2,r2,13
  80037c:	1000081e 	bne	r2,zero,8003a0 <GetInputString+0x60>
    {
      entry[i] = ch;
  800380:	e0bffb17 	ldw	r2,-20(fp)
  800384:	e0fffd17 	ldw	r3,-12(fp)
  800388:	1885883a 	add	r2,r3,r2
  80038c:	e0fffc17 	ldw	r3,-16(fp)
  800390:	10c00005 	stb	r3,0(r2)
      i++;
  800394:	e0bffb17 	ldw	r2,-20(fp)
  800398:	10800044 	addi	r2,r2,1
  80039c:	e0bffb15 	stw	r2,-20(fp)
void GetInputString( char* entry, int size, FILE * stream )
{
  int i;
  int ch = 0;
  
  for(i = 0; (ch != '\n') && (i < size); )
  8003a0:	e0bffc17 	ldw	r2,-16(fp)
  8003a4:	108002a0 	cmpeqi	r2,r2,10
  8003a8:	1000031e 	bne	r2,zero,8003b8 <GetInputString+0x78>
  8003ac:	e0fffb17 	ldw	r3,-20(fp)
  8003b0:	e0bffe17 	ldw	r2,-8(fp)
  8003b4:	18bfec16 	blt	r3,r2,800368 <__alt_data_end+0xff800368>
    {
      entry[i] = ch;
      i++;
    }
  }
}
  8003b8:	e037883a 	mov	sp,fp
  8003bc:	dfc00117 	ldw	ra,4(sp)
  8003c0:	df000017 	ldw	fp,0(sp)
  8003c4:	dec00204 	addi	sp,sp,8
  8003c8:	f800283a 	ret

008003cc <MenuEnd>:
 *    and continues until either a 'q' or a character outside of the 
 *    range, enclosed by 'lowLetter' and 'highLetter', is reached.
 */

static int MenuEnd( char lowLetter, char highLetter )
{
  8003cc:	defffc04 	addi	sp,sp,-16
  8003d0:	dfc00315 	stw	ra,12(sp)
  8003d4:	df000215 	stw	fp,8(sp)
  8003d8:	df000204 	addi	fp,sp,8
  8003dc:	2007883a 	mov	r3,r4
  8003e0:	2805883a 	mov	r2,r5
  8003e4:	e0fffe05 	stb	r3,-8(fp)
  8003e8:	e0bfff05 	stb	r2,-4(fp)
  static char entry[4];
  static char ch;

  printf("     q:  Exit\n");
  8003ec:	010020b4 	movhi	r4,130
  8003f0:	212cec04 	addi	r4,r4,-19536
  8003f4:	0802d100 	call	802d10 <puts>
  printf("----------------------------------\n");
  8003f8:	010020b4 	movhi	r4,130
  8003fc:	212cd604 	addi	r4,r4,-19624
  800400:	0802d100 	call	802d10 <puts>
  printf("\nSelect Choice (%c-%c): [Followed by <enter>]",lowLetter,highLetter);
  800404:	e0fffe07 	ldb	r3,-8(fp)
  800408:	e0bfff07 	ldb	r2,-4(fp)
  80040c:	010020b4 	movhi	r4,130
  800410:	212cf004 	addi	r4,r4,-19520
  800414:	180b883a 	mov	r5,r3
  800418:	100d883a 	mov	r6,r2
  80041c:	0802c0c0 	call	802c0c <printf>
  
  GetInputString( entry, sizeof(entry), stdin );
  800420:	008020b4 	movhi	r2,130
  800424:	10b6e204 	addi	r2,r2,-9336
  800428:	10800017 	ldw	r2,0(r2)
  80042c:	10800117 	ldw	r2,4(r2)
  800430:	d1276604 	addi	r4,gp,-25192
  800434:	01400104 	movi	r5,4
  800438:	100d883a 	mov	r6,r2
  80043c:	08003400 	call	800340 <GetInputString>
  if(sscanf(entry, "%c\n", &ch))
  800440:	d1276604 	addi	r4,gp,-25192
  800444:	014020b4 	movhi	r5,130
  800448:	296cfc04 	addi	r5,r5,-19472
  80044c:	d1a76704 	addi	r6,gp,-25188
  800450:	0802ff00 	call	802ff0 <sscanf>
  800454:	10001726 	beq	r2,zero,8004b4 <MenuEnd+0xe8>
  {
    if( ch >= 'A' && ch <= 'Z' )
  800458:	d0a76703 	ldbu	r2,-25188(gp)
  80045c:	10803fcc 	andi	r2,r2,255
  800460:	1080201c 	xori	r2,r2,128
  800464:	10bfe004 	addi	r2,r2,-128
  800468:	10801050 	cmplti	r2,r2,65
  80046c:	1000091e 	bne	r2,zero,800494 <MenuEnd+0xc8>
  800470:	d0a76703 	ldbu	r2,-25188(gp)
  800474:	10803fcc 	andi	r2,r2,255
  800478:	1080201c 	xori	r2,r2,128
  80047c:	10bfe004 	addi	r2,r2,-128
  800480:	108016c8 	cmpgei	r2,r2,91
  800484:	1000031e 	bne	r2,zero,800494 <MenuEnd+0xc8>
      ch += 'a' - 'A';
  800488:	d0a76703 	ldbu	r2,-25188(gp)
  80048c:	10800804 	addi	r2,r2,32
  800490:	d0a76705 	stb	r2,-25188(gp)
    if( ch == 27 )
  800494:	d0a76703 	ldbu	r2,-25188(gp)
  800498:	10803fcc 	andi	r2,r2,255
  80049c:	1080201c 	xori	r2,r2,128
  8004a0:	10bfe004 	addi	r2,r2,-128
  8004a4:	108006d8 	cmpnei	r2,r2,27
  8004a8:	1000021e 	bne	r2,zero,8004b4 <MenuEnd+0xe8>
      ch = 'q';        
  8004ac:	00801c44 	movi	r2,113
  8004b0:	d0a76705 	stb	r2,-25188(gp)
  }
  return ch;
  8004b4:	d0a76703 	ldbu	r2,-25188(gp)
  8004b8:	10803fcc 	andi	r2,r2,255
  8004bc:	1080201c 	xori	r2,r2,128
  8004c0:	10bfe004 	addi	r2,r2,-128
}
  8004c4:	e037883a 	mov	sp,fp
  8004c8:	dfc00117 	ldw	ra,4(sp)
  8004cc:	df000017 	ldw	fp,0(sp)
  8004d0:	dec00204 	addi	sp,sp,8
  8004d4:	f800283a 	ret

008004d8 <DoSevenSegMenu>:
 * Generates the Seven Segment Display menu.
 * 
 ******************************************************************************/

static void DoSevenSegMenu( void )
{
  8004d8:	defffe04 	addi	sp,sp,-8
  8004dc:	dfc00115 	stw	ra,4(sp)
  8004e0:	df000015 	stw	fp,0(sp)
  8004e4:	d839883a 	mov	fp,sp
  static char ch;

  while(1)
  {
    MenuBegin("Seven Segment Menu");
  8004e8:	010020b4 	movhi	r4,130
  8004ec:	212cfd04 	addi	r4,r4,-19468
  8004f0:	08002900 	call	800290 <MenuBegin>
    MenuItem('a', "Count From 0 to FF.");
  8004f4:	01001844 	movi	r4,97
  8004f8:	014020b4 	movhi	r5,130
  8004fc:	296d0204 	addi	r5,r5,-19448
  800500:	08002f80 	call	8002f8 <MenuItem>
    MenuItem('b', "Control Individual Segments.");
  800504:	01001884 	movi	r4,98
  800508:	014020b4 	movhi	r5,130
  80050c:	296d0704 	addi	r5,r5,-19428
  800510:	08002f80 	call	8002f8 <MenuItem>
    ch = MenuEnd('a', 'b');
  800514:	01001844 	movi	r4,97
  800518:	01401884 	movi	r5,98
  80051c:	08003cc0 	call	8003cc <MenuEnd>
  800520:	d0a76745 	stb	r2,-25187(gp)
  
    switch(ch)
  800524:	d0a76743 	ldbu	r2,-25187(gp)
  800528:	10803fcc 	andi	r2,r2,255
  80052c:	1080201c 	xori	r2,r2,128
  800530:	10bfe004 	addi	r2,r2,-128
  800534:	10c01860 	cmpeqi	r3,r2,97
  800538:	1800031e 	bne	r3,zero,800548 <DoSevenSegMenu+0x70>
  80053c:	108018a0 	cmpeqi	r2,r2,98
  800540:	1000031e 	bne	r2,zero,800550 <DoSevenSegMenu+0x78>
  800544:	00000406 	br	800558 <DoSevenSegMenu+0x80>
    {
      MenuCase('a', SevenSegCount);
  800548:	08008f00 	call	8008f0 <SevenSegCount>
  80054c:	00000206 	br	800558 <DoSevenSegMenu+0x80>
      MenuCase('b', SevenSegControl);
  800550:	080094c0 	call	80094c <SevenSegControl>
  800554:	0001883a 	nop
    }
    
    if ( ch == 'q' )
  800558:	d0a76743 	ldbu	r2,-25187(gp)
  80055c:	10803fcc 	andi	r2,r2,255
  800560:	1080201c 	xori	r2,r2,128
  800564:	10bfe004 	addi	r2,r2,-128
  800568:	10801c58 	cmpnei	r2,r2,113
  80056c:	1000011e 	bne	r2,zero,800574 <DoSevenSegMenu+0x9c>
    {
      break;
  800570:	00000106 	br	800578 <DoSevenSegMenu+0xa0>
    }
  }
  800574:	003fdc06 	br	8004e8 <__alt_data_end+0xff8004e8>
}
  800578:	e037883a 	mov	sp,fp
  80057c:	dfc00117 	ldw	ra,4(sp)
  800580:	df000017 	ldw	fp,0(sp)
  800584:	dec00204 	addi	sp,sp,8
  800588:	f800283a 	ret

0080058c <TopMenu>:
 * Generates the top level menu for this diagnostics program.
 * 
 ******************************************************************************/

static char TopMenu( void )
{
  80058c:	defffe04 	addi	sp,sp,-8
  800590:	dfc00115 	stw	ra,4(sp)
  800594:	df000015 	stw	fp,0(sp)
  800598:	d839883a 	mov	fp,sp
  
  /* Output the top-level menu to STDOUT */

  while (1)
  {
    MenuBegin("Main Menu");
  80059c:	010020b4 	movhi	r4,130
  8005a0:	212d0f04 	addi	r4,r4,-19396
  8005a4:	08002900 	call	800290 <MenuBegin>
#ifdef LED_PIO_NAME
    MenuItem( 'a', "Test LEDs" );
  8005a8:	01001844 	movi	r4,97
  8005ac:	014020b4 	movhi	r5,130
  8005b0:	296d1204 	addi	r5,r5,-19384
  8005b4:	08002f80 	call	8002f8 <MenuItem>
#endif
#ifdef LCD_DISPLAY_NAME
    MenuItem( 'b', "LCD Display Test");
  8005b8:	01001884 	movi	r4,98
  8005bc:	014020b4 	movhi	r5,130
  8005c0:	296d1504 	addi	r5,r5,-19372
  8005c4:	08002f80 	call	8002f8 <MenuItem>
#endif
#ifdef BUTTON_PIO_NAME
    MenuItem( 'c', "Button/Switch Test");
#endif
#ifdef SEVEN_SEG_PIO_NAME
    MenuItem( 'd', "Seven Segment Menu" );
  8005c8:	01001904 	movi	r4,100
  8005cc:	014020b4 	movhi	r5,130
  8005d0:	296cfd04 	addi	r5,r5,-19468
  8005d4:	08002f80 	call	8002f8 <MenuItem>
#endif
#ifdef JTAG_UART_NAME
    MenuItem( 'e', "JTAG UART Menu" );
#endif  
    ch = MenuEnd('a', 'e');
  8005d8:	01001844 	movi	r4,97
  8005dc:	01401944 	movi	r5,101
  8005e0:	08003cc0 	call	8003cc <MenuEnd>
  8005e4:	d0a76785 	stb	r2,-25186(gp)

  
    switch(ch)
  8005e8:	d0a76783 	ldbu	r2,-25186(gp)
  8005ec:	10803fcc 	andi	r2,r2,255
  8005f0:	1080201c 	xori	r2,r2,128
  8005f4:	10bfe004 	addi	r2,r2,-128
  8005f8:	10c018a0 	cmpeqi	r3,r2,98
  8005fc:	18000c1e 	bne	r3,zero,800630 <TopMenu+0xa4>
  800600:	10c018c8 	cmpgei	r3,r2,99
  800604:	1800031e 	bne	r3,zero,800614 <TopMenu+0x88>
  800608:	10801860 	cmpeqi	r2,r2,97
  80060c:	1000061e 	bne	r2,zero,800628 <TopMenu+0x9c>
  800610:	00000b06 	br	800640 <TopMenu+0xb4>
  800614:	10c01920 	cmpeqi	r3,r2,100
  800618:	1800071e 	bne	r3,zero,800638 <TopMenu+0xac>
  80061c:	10801c60 	cmpeqi	r2,r2,113
  800620:	1000101e 	bne	r2,zero,800664 <TopMenu+0xd8>
  800624:	00000606 	br	800640 <TopMenu+0xb4>
    {
#ifdef LED_PIO_NAME
      MenuCase('a',TestLEDs);
  800628:	08006a00 	call	8006a0 <TestLEDs>
  80062c:	00000e06 	br	800668 <TopMenu+0xdc>
#endif
#ifdef LCD_DISPLAY_NAME
      MenuCase('b',TestLCD);
  800630:	08007680 	call	800768 <TestLCD>
  800634:	00000c06 	br	800668 <TopMenu+0xdc>
#endif
#ifdef BUTTON_PIO_NAME
      MenuCase('c',TestButtons);
#endif
#ifdef SEVEN_SEG_PIO_NAME
      MenuCase('d',DoSevenSegMenu);
  800638:	08004d80 	call	8004d8 <DoSevenSegMenu>
  80063c:	00000a06 	br	800668 <TopMenu+0xdc>
#endif
#ifdef JTAG_UART_NAME
      MenuCase('e',DoJTAGUARTMenu);
#endif
      case 'q':	break;
      default:	printf("\n -ERROR: %c is an invalid entry.  Please try again\n", ch); break;
  800640:	d0a76783 	ldbu	r2,-25186(gp)
  800644:	10803fcc 	andi	r2,r2,255
  800648:	1080201c 	xori	r2,r2,128
  80064c:	10bfe004 	addi	r2,r2,-128
  800650:	010020b4 	movhi	r4,130
  800654:	212d1a04 	addi	r4,r4,-19352
  800658:	100b883a 	mov	r5,r2
  80065c:	0802c0c0 	call	802c0c <printf>
  800660:	00000106 	br	800668 <TopMenu+0xdc>
      MenuCase('d',DoSevenSegMenu);
#endif
#ifdef JTAG_UART_NAME
      MenuCase('e',DoJTAGUARTMenu);
#endif
      case 'q':	break;
  800664:	0001883a 	nop
      default:	printf("\n -ERROR: %c is an invalid entry.  Please try again\n", ch); break;
    }
    
    if (ch == 'q' )
  800668:	d0a76783 	ldbu	r2,-25186(gp)
  80066c:	10803fcc 	andi	r2,r2,255
  800670:	1080201c 	xori	r2,r2,128
  800674:	10bfe004 	addi	r2,r2,-128
  800678:	10801c58 	cmpnei	r2,r2,113
  80067c:	1000011e 	bne	r2,zero,800684 <TopMenu+0xf8>
      break;
  800680:	00000106 	br	800688 <TopMenu+0xfc>
  }
  800684:	003fc506 	br	80059c <__alt_data_end+0xff80059c>
  return( ch );
  800688:	d0a76783 	ldbu	r2,-25186(gp)
}
  80068c:	e037883a 	mov	sp,fp
  800690:	dfc00117 	ldw	ra,4(sp)
  800694:	df000017 	ldw	fp,0(sp)
  800698:	dec00204 	addi	sp,sp,8
  80069c:	f800283a 	ret

008006a0 <TestLEDs>:
 * This function tests LED functionality.
 * It exits when the user types a 'q'.
 */

static void TestLEDs(void)
{
  8006a0:	defffd04 	addi	sp,sp,-12
  8006a4:	dfc00215 	stw	ra,8(sp)
  8006a8:	df000115 	stw	fp,4(sp)
  8006ac:	df000104 	addi	fp,sp,4
  volatile alt_u8 led;
  static char ch;
  static char entry[4];
  
  /* Turn the LEDs on. */
  led = 0xff;
  8006b0:	00bfffc4 	movi	r2,-1
  8006b4:	e0bfff05 	stb	r2,-4(fp)
  IOWR_ALTERA_AVALON_PIO_DATA(LED_PIO_BASE, led);
  8006b8:	e0bfff03 	ldbu	r2,-4(fp)
  8006bc:	10c03fcc 	andi	r3,r2,255
  8006c0:	00804034 	movhi	r2,256
  8006c4:	10844c04 	addi	r2,r2,4400
  8006c8:	10c00035 	stwio	r3,0(r2)
  printf( "\nAll LEDs should now be on.\n" );
  8006cc:	010020b4 	movhi	r4,130
  8006d0:	212d2804 	addi	r4,r4,-19296
  8006d4:	0802d100 	call	802d10 <puts>
  printf( "\tPlease press 'q' [Followed by <enter>] to exit this test.\n" );
  8006d8:	010020b4 	movhi	r4,130
  8006dc:	212d2f04 	addi	r4,r4,-19268
  8006e0:	0802d100 	call	802d10 <puts>
  
  /* Get the input string for exiting this test. */
  do {
    GetInputString( entry, sizeof(entry), stdin);
  8006e4:	008020b4 	movhi	r2,130
  8006e8:	10b6e204 	addi	r2,r2,-9336
  8006ec:	10800017 	ldw	r2,0(r2)
  8006f0:	10800117 	ldw	r2,4(r2)
  8006f4:	d12767c4 	addi	r4,gp,-25185
  8006f8:	01400104 	movi	r5,4
  8006fc:	100d883a 	mov	r6,r2
  800700:	08003400 	call	800340 <GetInputString>
    sscanf( entry, "%c\n", &ch );
  800704:	d12767c4 	addi	r4,gp,-25185
  800708:	014020b4 	movhi	r5,130
  80070c:	296cfc04 	addi	r5,r5,-19472
  800710:	d1a768c4 	addi	r6,gp,-25181
  800714:	0802ff00 	call	802ff0 <sscanf>
  } while ( ch != 'q' );
  800718:	d0a768c3 	ldbu	r2,-25181(gp)
  80071c:	10803fcc 	andi	r2,r2,255
  800720:	1080201c 	xori	r2,r2,128
  800724:	10bfe004 	addi	r2,r2,-128
  800728:	10801c58 	cmpnei	r2,r2,113
  80072c:	103fed1e 	bne	r2,zero,8006e4 <__alt_data_end+0xff8006e4>
  
  /* Turn the LEDs off and exit. */
  led = 0x0;
  800730:	e03fff05 	stb	zero,-4(fp)
  IOWR_ALTERA_AVALON_PIO_DATA(LED_PIO_BASE, led);
  800734:	e0bfff03 	ldbu	r2,-4(fp)
  800738:	10c03fcc 	andi	r3,r2,255
  80073c:	00804034 	movhi	r2,256
  800740:	10844c04 	addi	r2,r2,4400
  800744:	10c00035 	stwio	r3,0(r2)
  printf(".....Exiting LED Test.\n");
  800748:	010020b4 	movhi	r4,130
  80074c:	212d3e04 	addi	r4,r4,-19208
  800750:	0802d100 	call	802d10 <puts>
}
  800754:	e037883a 	mov	sp,fp
  800758:	dfc00117 	ldw	ra,4(sp)
  80075c:	df000017 	ldw	fp,0(sp)
  800760:	dec00204 	addi	sp,sp,8
  800764:	f800283a 	ret

00800768 <TestLCD>:
 * Tests the LCD by printing some simple output to each line.
 * 
 ******************************************************************************/

static void TestLCD( void )
{
  800768:	defffd04 	addi	sp,sp,-12
  80076c:	dfc00215 	stw	ra,8(sp)
  800770:	df000115 	stw	fp,4(sp)
  800774:	df000104 	addi	fp,sp,4
  FILE *lcd;
  static char ch;
  static char entry[4];
  
  lcd = fopen("/dev/lcd_display", "w");
  800778:	010020b4 	movhi	r4,130
  80077c:	212d4404 	addi	r4,r4,-19184
  800780:	014020b4 	movhi	r5,130
  800784:	296d4904 	addi	r5,r5,-19164
  800788:	08014100 	call	801410 <fopen>
  80078c:	e0bfff15 	stw	r2,-4(fp)
  
  /* Write some simple text to the LCD. */
  if (lcd != NULL )
  800790:	e0bfff17 	ldw	r2,-4(fp)
  800794:	10000c26 	beq	r2,zero,8007c8 <TestLCD+0x60>
  {
    fprintf(lcd, "\nThis is the LCD Display.\n");
  800798:	010020b4 	movhi	r4,130
  80079c:	212d4a04 	addi	r4,r4,-19160
  8007a0:	01400044 	movi	r5,1
  8007a4:	01800684 	movi	r6,26
  8007a8:	e1ffff17 	ldw	r7,-4(fp)
  8007ac:	0801fc80 	call	801fc8 <fwrite>
    fprintf(lcd, "If you can see this, your LCD is functional.\n");
  8007b0:	010020b4 	movhi	r4,130
  8007b4:	212d5104 	addi	r4,r4,-19132
  8007b8:	01400044 	movi	r5,1
  8007bc:	01800b44 	movi	r6,45
  8007c0:	e1ffff17 	ldw	r7,-4(fp)
  8007c4:	0801fc80 	call	801fc8 <fwrite>
  }
  printf("\nIf you can see messages scrolling on the LCD Display, then it is functional!\n");
  8007c8:	010020b4 	movhi	r4,130
  8007cc:	212d5d04 	addi	r4,r4,-19084
  8007d0:	0802d100 	call	802d10 <puts>
  printf( "\tPlease press 'q' [Followed by <enter>] to exit this test.\n" );
  8007d4:	010020b4 	movhi	r4,130
  8007d8:	212d2f04 	addi	r4,r4,-19268
  8007dc:	0802d100 	call	802d10 <puts>
  
  /* Get the input string for exiting this test. */
  do {
    GetInputString( entry, sizeof(entry), stdin);
  8007e0:	008020b4 	movhi	r2,130
  8007e4:	10b6e204 	addi	r2,r2,-9336
  8007e8:	10800017 	ldw	r2,0(r2)
  8007ec:	10800117 	ldw	r2,4(r2)
  8007f0:	d1276904 	addi	r4,gp,-25180
  8007f4:	01400104 	movi	r5,4
  8007f8:	100d883a 	mov	r6,r2
  8007fc:	08003400 	call	800340 <GetInputString>
    sscanf( entry, "%c\n", &ch );
  800800:	d1276904 	addi	r4,gp,-25180
  800804:	014020b4 	movhi	r5,130
  800808:	296cfc04 	addi	r5,r5,-19472
  80080c:	d1a76a04 	addi	r6,gp,-25176
  800810:	0802ff00 	call	802ff0 <sscanf>
  } while ( ch != 'q' );
  800814:	d0a76a03 	ldbu	r2,-25176(gp)
  800818:	10803fcc 	andi	r2,r2,255
  80081c:	1080201c 	xori	r2,r2,128
  800820:	10bfe004 	addi	r2,r2,-128
  800824:	10801c58 	cmpnei	r2,r2,113
  800828:	103fed1e 	bne	r2,zero,8007e0 <__alt_data_end+0xff8007e0>

  /* Send the command sequence to clear the LCD. */
  if (lcd != NULL )
  80082c:	e0bfff17 	ldw	r2,-4(fp)
  800830:	10000726 	beq	r2,zero,800850 <TestLCD+0xe8>
  {
    fprintf(lcd, "%c%s", ESC, CLEAR_LCD_STRING);
  800834:	e13fff17 	ldw	r4,-4(fp)
  800838:	014020b4 	movhi	r5,130
  80083c:	296d7104 	addi	r5,r5,-19004
  800840:	018006c4 	movi	r6,27
  800844:	01c020b4 	movhi	r7,130
  800848:	39ed7304 	addi	r7,r7,-18996
  80084c:	08014540 	call	801454 <fprintf>
  }
  fclose( lcd );
  800850:	e13fff17 	ldw	r4,-4(fp)
  800854:	0800cd80 	call	800cd8 <fclose>

  return;
  800858:	0001883a 	nop
}
  80085c:	e037883a 	mov	sp,fp
  800860:	dfc00117 	ldw	ra,4(sp)
  800864:	df000017 	ldw	fp,0(sp)
  800868:	dec00204 	addi	sp,sp,8
  80086c:	f800283a 	ret

00800870 <sevenseg_set_hex>:
 * the variable 'hex' into what is displayed on
 * the Seven Segment Display.
 *********************************************/
 
static void sevenseg_set_hex(alt_u8 hex)
{
  800870:	defffd04 	addi	sp,sp,-12
  800874:	df000215 	stw	fp,8(sp)
  800878:	df000204 	addi	fp,sp,8
  80087c:	2005883a 	mov	r2,r4
  800880:	e0bfff05 	stb	r2,-4(fp)
  static alt_u8 segments[16] = {
    0x81, 0xCF, 0x92, 0x86, 0xCC, 0xA4, 0xA0, 0x8F, 0x80, 0x84, /* 0-9 */
    0x88, 0xE0, 0xF2, 0xC2, 0xB0, 0xB8 };                       /* a-f */

  alt_u32 data = segments[hex & 15] | (segments[(hex >> 4) & 15] << 8);
  800884:	e0bfff03 	ldbu	r2,-4(fp)
  800888:	10c003cc 	andi	r3,r2,15
  80088c:	008020b4 	movhi	r2,130
  800890:	10afa104 	addi	r2,r2,-16764
  800894:	10c5883a 	add	r2,r2,r3
  800898:	10800003 	ldbu	r2,0(r2)
  80089c:	10c03fcc 	andi	r3,r2,255
  8008a0:	e0bfff03 	ldbu	r2,-4(fp)
  8008a4:	1004d13a 	srli	r2,r2,4
  8008a8:	10803fcc 	andi	r2,r2,255
  8008ac:	110003cc 	andi	r4,r2,15
  8008b0:	008020b4 	movhi	r2,130
  8008b4:	10afa104 	addi	r2,r2,-16764
  8008b8:	1105883a 	add	r2,r2,r4
  8008bc:	10800003 	ldbu	r2,0(r2)
  8008c0:	10803fcc 	andi	r2,r2,255
  8008c4:	1004923a 	slli	r2,r2,8
  8008c8:	1884b03a 	or	r2,r3,r2
  8008cc:	e0bffe15 	stw	r2,-8(fp)

  IOWR_ALTERA_AVALON_PIO_DATA(SEVEN_SEG_PIO_BASE, data);
  8008d0:	e0fffe17 	ldw	r3,-8(fp)
  8008d4:	00804034 	movhi	r2,256
  8008d8:	10840804 	addi	r2,r2,4128
  8008dc:	10c00035 	stwio	r3,0(r2)
}
  8008e0:	e037883a 	mov	sp,fp
  8008e4:	df000017 	ldw	fp,0(sp)
  8008e8:	dec00104 	addi	sp,sp,4
  8008ec:	f800283a 	ret

008008f0 <SevenSegCount>:
 * Displays from 0 to FF on the Seven Segment Display with
 * a 0.25s count delay implemented in a for loop.
 *******************************************/
 
static void SevenSegCount( void )
{
  8008f0:	defffd04 	addi	sp,sp,-12
  8008f4:	dfc00215 	stw	ra,8(sp)
  8008f8:	df000115 	stw	fp,4(sp)
  8008fc:	df000104 	addi	fp,sp,4
  alt_u32 count;
  for (count = 0; count <= 0xff; count++)
  800900:	e03fff15 	stw	zero,-4(fp)
  800904:	00000906 	br	80092c <SevenSegCount+0x3c>
  {
    sevenseg_set_hex( count );
  800908:	e0bfff17 	ldw	r2,-4(fp)
  80090c:	10803fcc 	andi	r2,r2,255
  800910:	1009883a 	mov	r4,r2
  800914:	08008700 	call	800870 <sevenseg_set_hex>
    usleep(50000);
  800918:	0130d414 	movui	r4,50000
  80091c:	0817d480 	call	817d48 <usleep>
 *******************************************/
 
static void SevenSegCount( void )
{
  alt_u32 count;
  for (count = 0; count <= 0xff; count++)
  800920:	e0bfff17 	ldw	r2,-4(fp)
  800924:	10800044 	addi	r2,r2,1
  800928:	e0bfff15 	stw	r2,-4(fp)
  80092c:	e0bfff17 	ldw	r2,-4(fp)
  800930:	10804030 	cmpltui	r2,r2,256
  800934:	103ff41e 	bne	r2,zero,800908 <__alt_data_end+0xff800908>
  {
    sevenseg_set_hex( count );
    usleep(50000);
  }
}
  800938:	e037883a 	mov	sp,fp
  80093c:	dfc00117 	ldw	ra,4(sp)
  800940:	df000017 	ldw	fp,0(sp)
  800944:	dec00204 	addi	sp,sp,8
  800948:	f800283a 	ret

0080094c <SevenSegControl>:
 * Displays selected Seven Segment segments.
 * 
 ******************************************/

static void SevenSegControl(void)
{
  80094c:	defffb04 	addi	sp,sp,-20
  800950:	dfc00415 	stw	ra,16(sp)
  800954:	df000315 	stw	fp,12(sp)
  800958:	df000304 	addi	fp,sp,12
  alt_32 bits;
  alt_32 keyBit;
  static char ch;
  
  /* Turn all segments off at start of test. */
  bits = 0xffff;
  80095c:	00bfffd4 	movui	r2,65535
  800960:	e0bffd15 	stw	r2,-12(fp)
  IOWR_ALTERA_AVALON_PIO_DATA(SEVEN_SEG_PIO_BASE, bits);
  800964:	00804034 	movhi	r2,256
  800968:	10840804 	addi	r2,r2,4128
  80096c:	e0fffd17 	ldw	r3,-12(fp)
  800970:	10c00035 	stwio	r3,0(r2)

  printf("\n");
  800974:	01000284 	movi	r4,10
  800978:	0802c500 	call	802c50 <putchar>
  printf("\n");
  80097c:	01000284 	movi	r4,10
  800980:	0802c500 	call	802c50 <putchar>
  printf("         +-A--+     +-a--+\n");
  800984:	010020b4 	movhi	r4,130
  800988:	212d7404 	addi	r4,r4,-18992
  80098c:	0802d100 	call	802d10 <puts>
  printf("         |    |     |    |\n");
  800990:	010020b4 	movhi	r4,130
  800994:	212d7b04 	addi	r4,r4,-18964
  800998:	0802d100 	call	802d10 <puts>
  printf("         F    B     f    b\n");
  80099c:	010020b4 	movhi	r4,130
  8009a0:	212d8204 	addi	r4,r4,-18936
  8009a4:	0802d100 	call	802d10 <puts>
  printf("         |    |     |    |\n");
  8009a8:	010020b4 	movhi	r4,130
  8009ac:	212d7b04 	addi	r4,r4,-18964
  8009b0:	0802d100 	call	802d10 <puts>
  printf("         +-G--+     +-g--+\n");
  8009b4:	010020b4 	movhi	r4,130
  8009b8:	212d8904 	addi	r4,r4,-18908
  8009bc:	0802d100 	call	802d10 <puts>
  printf("         |    |     |    |\n");
  8009c0:	010020b4 	movhi	r4,130
  8009c4:	212d7b04 	addi	r4,r4,-18964
  8009c8:	0802d100 	call	802d10 <puts>
  printf("         E    C     e    c\n");
  8009cc:	010020b4 	movhi	r4,130
  8009d0:	212d9004 	addi	r4,r4,-18880
  8009d4:	0802d100 	call	802d10 <puts>
  printf("         |    |     |    |\n");
  8009d8:	010020b4 	movhi	r4,130
  8009dc:	212d7b04 	addi	r4,r4,-18964
  8009e0:	0802d100 	call	802d10 <puts>
  printf("         +-D--+ (H) +-d--+ (h)\n");
  8009e4:	010020b4 	movhi	r4,130
  8009e8:	212d9704 	addi	r4,r4,-18852
  8009ec:	0802d100 	call	802d10 <puts>
  printf("\n");
  8009f0:	01000284 	movi	r4,10
  8009f4:	0802c500 	call	802c50 <putchar>
  printf("Press 'q' [Followed by <enter>] to exit this test.\n");
  8009f8:	010020b4 	movhi	r4,130
  8009fc:	212d9f04 	addi	r4,r4,-18820
  800a00:	0802d100 	call	802d10 <puts>
  
  do
  {
    /* Get terminal input. */
    GetInputString( entry, sizeof(entry), stdin);
  800a04:	008020b4 	movhi	r2,130
  800a08:	10b6e204 	addi	r2,r2,-9336
  800a0c:	10800017 	ldw	r2,0(r2)
  800a10:	10800117 	ldw	r2,4(r2)
  800a14:	e0ffff04 	addi	r3,fp,-4
  800a18:	1809883a 	mov	r4,r3
  800a1c:	01400104 	movi	r5,4
  800a20:	100d883a 	mov	r6,r2
  800a24:	08003400 	call	800340 <GetInputString>
    sscanf( entry, "%c\n", &ch );
  800a28:	e0bfff04 	addi	r2,fp,-4
  800a2c:	1009883a 	mov	r4,r2
  800a30:	014020b4 	movhi	r5,130
  800a34:	296cfc04 	addi	r5,r5,-19472
  800a38:	d1a76a44 	addi	r6,gp,-25175
  800a3c:	0802ff00 	call	802ff0 <sscanf>
    /* SSD pattern algorithm. */
    keyBit = 0;
  800a40:	e03ffe15 	stw	zero,-8(fp)
    if(ch >= 'a' && ch <= 'g')
  800a44:	d0a76a43 	ldbu	r2,-25175(gp)
  800a48:	10803fcc 	andi	r2,r2,255
  800a4c:	1080201c 	xori	r2,r2,128
  800a50:	10bfe004 	addi	r2,r2,-128
  800a54:	10801850 	cmplti	r2,r2,97
  800a58:	1000101e 	bne	r2,zero,800a9c <SevenSegControl+0x150>
  800a5c:	d0a76a43 	ldbu	r2,-25175(gp)
  800a60:	10803fcc 	andi	r2,r2,255
  800a64:	1080201c 	xori	r2,r2,128
  800a68:	10bfe004 	addi	r2,r2,-128
  800a6c:	10801a08 	cmpgei	r2,r2,104
  800a70:	10000a1e 	bne	r2,zero,800a9c <SevenSegControl+0x150>
      keyBit = 1 << ('g' - ch);
  800a74:	d0a76a43 	ldbu	r2,-25175(gp)
  800a78:	10803fcc 	andi	r2,r2,255
  800a7c:	1080201c 	xori	r2,r2,128
  800a80:	10bfe004 	addi	r2,r2,-128
  800a84:	00c019c4 	movi	r3,103
  800a88:	1885c83a 	sub	r2,r3,r2
  800a8c:	00c00044 	movi	r3,1
  800a90:	1884983a 	sll	r2,r3,r2
  800a94:	e0bffe15 	stw	r2,-8(fp)
  800a98:	00002706 	br	800b38 <SevenSegControl+0x1ec>
    else if(ch == 'h')
  800a9c:	d0a76a43 	ldbu	r2,-25175(gp)
  800aa0:	10803fcc 	andi	r2,r2,255
  800aa4:	1080201c 	xori	r2,r2,128
  800aa8:	10bfe004 	addi	r2,r2,-128
  800aac:	10801a18 	cmpnei	r2,r2,104
  800ab0:	1000031e 	bne	r2,zero,800ac0 <SevenSegControl+0x174>
      keyBit = 1 << 7;
  800ab4:	00802004 	movi	r2,128
  800ab8:	e0bffe15 	stw	r2,-8(fp)
  800abc:	00001e06 	br	800b38 <SevenSegControl+0x1ec>
    else if(ch >= 'A' && ch <= 'G')
  800ac0:	d0a76a43 	ldbu	r2,-25175(gp)
  800ac4:	10803fcc 	andi	r2,r2,255
  800ac8:	1080201c 	xori	r2,r2,128
  800acc:	10bfe004 	addi	r2,r2,-128
  800ad0:	10801050 	cmplti	r2,r2,65
  800ad4:	1000101e 	bne	r2,zero,800b18 <SevenSegControl+0x1cc>
  800ad8:	d0a76a43 	ldbu	r2,-25175(gp)
  800adc:	10803fcc 	andi	r2,r2,255
  800ae0:	1080201c 	xori	r2,r2,128
  800ae4:	10bfe004 	addi	r2,r2,-128
  800ae8:	10801208 	cmpgei	r2,r2,72
  800aec:	10000a1e 	bne	r2,zero,800b18 <SevenSegControl+0x1cc>
      keyBit = 1 << ('G' - ch + 8);
  800af0:	d0a76a43 	ldbu	r2,-25175(gp)
  800af4:	10803fcc 	andi	r2,r2,255
  800af8:	1080201c 	xori	r2,r2,128
  800afc:	10bfe004 	addi	r2,r2,-128
  800b00:	00c013c4 	movi	r3,79
  800b04:	1885c83a 	sub	r2,r3,r2
  800b08:	00c00044 	movi	r3,1
  800b0c:	1884983a 	sll	r2,r3,r2
  800b10:	e0bffe15 	stw	r2,-8(fp)
  800b14:	00000806 	br	800b38 <SevenSegControl+0x1ec>
    else if(ch == 'H')
  800b18:	d0a76a43 	ldbu	r2,-25175(gp)
  800b1c:	10803fcc 	andi	r2,r2,255
  800b20:	1080201c 	xori	r2,r2,128
  800b24:	10bfe004 	addi	r2,r2,-128
  800b28:	10801218 	cmpnei	r2,r2,72
  800b2c:	1000021e 	bne	r2,zero,800b38 <SevenSegControl+0x1ec>
      keyBit = 1 << 15;
  800b30:	00a00014 	movui	r2,32768
  800b34:	e0bffe15 	stw	r2,-8(fp)
    bits ^= keyBit;
  800b38:	e0fffd17 	ldw	r3,-12(fp)
  800b3c:	e0bffe17 	ldw	r2,-8(fp)
  800b40:	1884f03a 	xor	r2,r3,r2
  800b44:	e0bffd15 	stw	r2,-12(fp)
    IOWR_ALTERA_AVALON_PIO_DATA(SEVEN_SEG_PIO_BASE, bits);
  800b48:	00804034 	movhi	r2,256
  800b4c:	10840804 	addi	r2,r2,4128
  800b50:	e0fffd17 	ldw	r3,-12(fp)
  800b54:	10c00035 	stwio	r3,0(r2)
  }
  while( ch != 'q' );
  800b58:	d0a76a43 	ldbu	r2,-25175(gp)
  800b5c:	10803fcc 	andi	r2,r2,255
  800b60:	1080201c 	xori	r2,r2,128
  800b64:	10bfe004 	addi	r2,r2,-128
  800b68:	10801c58 	cmpnei	r2,r2,113
  800b6c:	103fa51e 	bne	r2,zero,800a04 <__alt_data_end+0xff800a04>
}
  800b70:	e037883a 	mov	sp,fp
  800b74:	dfc00117 	ldw	ra,4(sp)
  800b78:	df000017 	ldw	fp,0(sp)
  800b7c:	dec00204 	addi	sp,sp,8
  800b80:	f800283a 	ret

00800b84 <main>:
}

#endif

int main()
{
  800b84:	defffd04 	addi	sp,sp,-12
  800b88:	dfc00215 	stw	ra,8(sp)
  800b8c:	df000115 	stw	fp,4(sp)
  800b90:	df000104 	addi	fp,sp,4
  /* Declare variable for received character. */
  int ch;
  
  while (1)
  {
    ch = TopMenu();
  800b94:	080058c0 	call	80058c <TopMenu>
  800b98:	10803fcc 	andi	r2,r2,255
  800b9c:	1080201c 	xori	r2,r2,128
  800ba0:	10bfe004 	addi	r2,r2,-128
  800ba4:	e0bfff15 	stw	r2,-4(fp)
    if (ch == 'q')
  800ba8:	e0bfff17 	ldw	r2,-4(fp)
  800bac:	10801c58 	cmpnei	r2,r2,113
  800bb0:	1000061e 	bne	r2,zero,800bcc <main+0x48>
    {
      printf( "\nExiting from Board Diagnostics.\n");
  800bb4:	010020b4 	movhi	r4,130
  800bb8:	212dac04 	addi	r4,r4,-18768
  800bbc:	0802d100 	call	802d10 <puts>
      /* Send EOT to nios2-terminal on the other side of the link. */
      printf( "%c", EOT );
  800bc0:	01000104 	movi	r4,4
  800bc4:	0802c500 	call	802c50 <putchar>
      break;
  800bc8:	00000106 	br	800bd0 <main+0x4c>
    }
  }
  800bcc:	003ff106 	br	800b94 <__alt_data_end+0xff800b94>
  return( 0 );
  800bd0:	0005883a 	mov	r2,zero
}
  800bd4:	e037883a 	mov	sp,fp
  800bd8:	dfc00117 	ldw	ra,4(sp)
  800bdc:	df000017 	ldw	fp,0(sp)
  800be0:	dec00204 	addi	sp,sp,8
  800be4:	f800283a 	ret

00800be8 <_fclose_r>:
  800be8:	28003926 	beq	r5,zero,800cd0 <_fclose_r+0xe8>
  800bec:	defffc04 	addi	sp,sp,-16
  800bf0:	dc400115 	stw	r17,4(sp)
  800bf4:	dc000015 	stw	r16,0(sp)
  800bf8:	dfc00315 	stw	ra,12(sp)
  800bfc:	dc800215 	stw	r18,8(sp)
  800c00:	2023883a 	mov	r17,r4
  800c04:	2821883a 	mov	r16,r5
  800c08:	20000226 	beq	r4,zero,800c14 <_fclose_r+0x2c>
  800c0c:	20800e17 	ldw	r2,56(r4)
  800c10:	10002726 	beq	r2,zero,800cb0 <_fclose_r+0xc8>
  800c14:	8080030f 	ldh	r2,12(r16)
  800c18:	1000071e 	bne	r2,zero,800c38 <_fclose_r+0x50>
  800c1c:	0005883a 	mov	r2,zero
  800c20:	dfc00317 	ldw	ra,12(sp)
  800c24:	dc800217 	ldw	r18,8(sp)
  800c28:	dc400117 	ldw	r17,4(sp)
  800c2c:	dc000017 	ldw	r16,0(sp)
  800c30:	dec00404 	addi	sp,sp,16
  800c34:	f800283a 	ret
  800c38:	8809883a 	mov	r4,r17
  800c3c:	800b883a 	mov	r5,r16
  800c40:	0800cec0 	call	800cec <__sflush_r>
  800c44:	1025883a 	mov	r18,r2
  800c48:	80800b17 	ldw	r2,44(r16)
  800c4c:	10000426 	beq	r2,zero,800c60 <_fclose_r+0x78>
  800c50:	81400717 	ldw	r5,28(r16)
  800c54:	8809883a 	mov	r4,r17
  800c58:	103ee83a 	callr	r2
  800c5c:	10001616 	blt	r2,zero,800cb8 <_fclose_r+0xd0>
  800c60:	8080030b 	ldhu	r2,12(r16)
  800c64:	1080200c 	andi	r2,r2,128
  800c68:	1000151e 	bne	r2,zero,800cc0 <_fclose_r+0xd8>
  800c6c:	81400c17 	ldw	r5,48(r16)
  800c70:	28000526 	beq	r5,zero,800c88 <_fclose_r+0xa0>
  800c74:	80801004 	addi	r2,r16,64
  800c78:	28800226 	beq	r5,r2,800c84 <_fclose_r+0x9c>
  800c7c:	8809883a 	mov	r4,r17
  800c80:	080159c0 	call	80159c <_free_r>
  800c84:	80000c15 	stw	zero,48(r16)
  800c88:	81401117 	ldw	r5,68(r16)
  800c8c:	28000326 	beq	r5,zero,800c9c <_fclose_r+0xb4>
  800c90:	8809883a 	mov	r4,r17
  800c94:	080159c0 	call	80159c <_free_r>
  800c98:	80001115 	stw	zero,68(r16)
  800c9c:	08012e00 	call	8012e0 <__sfp_lock_acquire>
  800ca0:	8000030d 	sth	zero,12(r16)
  800ca4:	08012e40 	call	8012e4 <__sfp_lock_release>
  800ca8:	9005883a 	mov	r2,r18
  800cac:	003fdc06 	br	800c20 <__alt_data_end+0xff800c20>
  800cb0:	08012d00 	call	8012d0 <__sinit>
  800cb4:	003fd706 	br	800c14 <__alt_data_end+0xff800c14>
  800cb8:	04bfffc4 	movi	r18,-1
  800cbc:	003fe806 	br	800c60 <__alt_data_end+0xff800c60>
  800cc0:	81400417 	ldw	r5,16(r16)
  800cc4:	8809883a 	mov	r4,r17
  800cc8:	080159c0 	call	80159c <_free_r>
  800ccc:	003fe706 	br	800c6c <__alt_data_end+0xff800c6c>
  800cd0:	0005883a 	mov	r2,zero
  800cd4:	f800283a 	ret

00800cd8 <fclose>:
  800cd8:	008020b4 	movhi	r2,130
  800cdc:	10b6e204 	addi	r2,r2,-9336
  800ce0:	200b883a 	mov	r5,r4
  800ce4:	11000017 	ldw	r4,0(r2)
  800ce8:	0800be81 	jmpi	800be8 <_fclose_r>

00800cec <__sflush_r>:
  800cec:	2880030b 	ldhu	r2,12(r5)
  800cf0:	defffb04 	addi	sp,sp,-20
  800cf4:	dcc00315 	stw	r19,12(sp)
  800cf8:	dc400115 	stw	r17,4(sp)
  800cfc:	dfc00415 	stw	ra,16(sp)
  800d00:	dc800215 	stw	r18,8(sp)
  800d04:	dc000015 	stw	r16,0(sp)
  800d08:	10c0020c 	andi	r3,r2,8
  800d0c:	2823883a 	mov	r17,r5
  800d10:	2027883a 	mov	r19,r4
  800d14:	1800311e 	bne	r3,zero,800ddc <__sflush_r+0xf0>
  800d18:	28c00117 	ldw	r3,4(r5)
  800d1c:	10820014 	ori	r2,r2,2048
  800d20:	2880030d 	sth	r2,12(r5)
  800d24:	00c04b0e 	bge	zero,r3,800e54 <__sflush_r+0x168>
  800d28:	8a000a17 	ldw	r8,40(r17)
  800d2c:	40002326 	beq	r8,zero,800dbc <__sflush_r+0xd0>
  800d30:	9c000017 	ldw	r16,0(r19)
  800d34:	10c4000c 	andi	r3,r2,4096
  800d38:	98000015 	stw	zero,0(r19)
  800d3c:	18004826 	beq	r3,zero,800e60 <__sflush_r+0x174>
  800d40:	89801417 	ldw	r6,80(r17)
  800d44:	10c0010c 	andi	r3,r2,4
  800d48:	18000626 	beq	r3,zero,800d64 <__sflush_r+0x78>
  800d4c:	88c00117 	ldw	r3,4(r17)
  800d50:	88800c17 	ldw	r2,48(r17)
  800d54:	30cdc83a 	sub	r6,r6,r3
  800d58:	10000226 	beq	r2,zero,800d64 <__sflush_r+0x78>
  800d5c:	88800f17 	ldw	r2,60(r17)
  800d60:	308dc83a 	sub	r6,r6,r2
  800d64:	89400717 	ldw	r5,28(r17)
  800d68:	9809883a 	mov	r4,r19
  800d6c:	000f883a 	mov	r7,zero
  800d70:	403ee83a 	callr	r8
  800d74:	00ffffc4 	movi	r3,-1
  800d78:	10c04426 	beq	r2,r3,800e8c <__sflush_r+0x1a0>
  800d7c:	88c0030b 	ldhu	r3,12(r17)
  800d80:	89000417 	ldw	r4,16(r17)
  800d84:	88000115 	stw	zero,4(r17)
  800d88:	197dffcc 	andi	r5,r3,63487
  800d8c:	8940030d 	sth	r5,12(r17)
  800d90:	89000015 	stw	r4,0(r17)
  800d94:	18c4000c 	andi	r3,r3,4096
  800d98:	18002c1e 	bne	r3,zero,800e4c <__sflush_r+0x160>
  800d9c:	89400c17 	ldw	r5,48(r17)
  800da0:	9c000015 	stw	r16,0(r19)
  800da4:	28000526 	beq	r5,zero,800dbc <__sflush_r+0xd0>
  800da8:	88801004 	addi	r2,r17,64
  800dac:	28800226 	beq	r5,r2,800db8 <__sflush_r+0xcc>
  800db0:	9809883a 	mov	r4,r19
  800db4:	080159c0 	call	80159c <_free_r>
  800db8:	88000c15 	stw	zero,48(r17)
  800dbc:	0005883a 	mov	r2,zero
  800dc0:	dfc00417 	ldw	ra,16(sp)
  800dc4:	dcc00317 	ldw	r19,12(sp)
  800dc8:	dc800217 	ldw	r18,8(sp)
  800dcc:	dc400117 	ldw	r17,4(sp)
  800dd0:	dc000017 	ldw	r16,0(sp)
  800dd4:	dec00504 	addi	sp,sp,20
  800dd8:	f800283a 	ret
  800ddc:	2c800417 	ldw	r18,16(r5)
  800de0:	903ff626 	beq	r18,zero,800dbc <__alt_data_end+0xff800dbc>
  800de4:	2c000017 	ldw	r16,0(r5)
  800de8:	108000cc 	andi	r2,r2,3
  800dec:	2c800015 	stw	r18,0(r5)
  800df0:	84a1c83a 	sub	r16,r16,r18
  800df4:	1000131e 	bne	r2,zero,800e44 <__sflush_r+0x158>
  800df8:	28800517 	ldw	r2,20(r5)
  800dfc:	88800215 	stw	r2,8(r17)
  800e00:	04000316 	blt	zero,r16,800e10 <__sflush_r+0x124>
  800e04:	003fed06 	br	800dbc <__alt_data_end+0xff800dbc>
  800e08:	90a5883a 	add	r18,r18,r2
  800e0c:	043feb0e 	bge	zero,r16,800dbc <__alt_data_end+0xff800dbc>
  800e10:	88800917 	ldw	r2,36(r17)
  800e14:	89400717 	ldw	r5,28(r17)
  800e18:	800f883a 	mov	r7,r16
  800e1c:	900d883a 	mov	r6,r18
  800e20:	9809883a 	mov	r4,r19
  800e24:	103ee83a 	callr	r2
  800e28:	80a1c83a 	sub	r16,r16,r2
  800e2c:	00bff616 	blt	zero,r2,800e08 <__alt_data_end+0xff800e08>
  800e30:	88c0030b 	ldhu	r3,12(r17)
  800e34:	00bfffc4 	movi	r2,-1
  800e38:	18c01014 	ori	r3,r3,64
  800e3c:	88c0030d 	sth	r3,12(r17)
  800e40:	003fdf06 	br	800dc0 <__alt_data_end+0xff800dc0>
  800e44:	0005883a 	mov	r2,zero
  800e48:	003fec06 	br	800dfc <__alt_data_end+0xff800dfc>
  800e4c:	88801415 	stw	r2,80(r17)
  800e50:	003fd206 	br	800d9c <__alt_data_end+0xff800d9c>
  800e54:	28c00f17 	ldw	r3,60(r5)
  800e58:	00ffb316 	blt	zero,r3,800d28 <__alt_data_end+0xff800d28>
  800e5c:	003fd706 	br	800dbc <__alt_data_end+0xff800dbc>
  800e60:	89400717 	ldw	r5,28(r17)
  800e64:	000d883a 	mov	r6,zero
  800e68:	9809883a 	mov	r4,r19
  800e6c:	01c00044 	movi	r7,1
  800e70:	403ee83a 	callr	r8
  800e74:	100d883a 	mov	r6,r2
  800e78:	00bfffc4 	movi	r2,-1
  800e7c:	30801426 	beq	r6,r2,800ed0 <__sflush_r+0x1e4>
  800e80:	8880030b 	ldhu	r2,12(r17)
  800e84:	8a000a17 	ldw	r8,40(r17)
  800e88:	003fae06 	br	800d44 <__alt_data_end+0xff800d44>
  800e8c:	98c00017 	ldw	r3,0(r19)
  800e90:	183fba26 	beq	r3,zero,800d7c <__alt_data_end+0xff800d7c>
  800e94:	01000744 	movi	r4,29
  800e98:	19000626 	beq	r3,r4,800eb4 <__sflush_r+0x1c8>
  800e9c:	01000584 	movi	r4,22
  800ea0:	19000426 	beq	r3,r4,800eb4 <__sflush_r+0x1c8>
  800ea4:	88c0030b 	ldhu	r3,12(r17)
  800ea8:	18c01014 	ori	r3,r3,64
  800eac:	88c0030d 	sth	r3,12(r17)
  800eb0:	003fc306 	br	800dc0 <__alt_data_end+0xff800dc0>
  800eb4:	8880030b 	ldhu	r2,12(r17)
  800eb8:	88c00417 	ldw	r3,16(r17)
  800ebc:	88000115 	stw	zero,4(r17)
  800ec0:	10bdffcc 	andi	r2,r2,63487
  800ec4:	8880030d 	sth	r2,12(r17)
  800ec8:	88c00015 	stw	r3,0(r17)
  800ecc:	003fb306 	br	800d9c <__alt_data_end+0xff800d9c>
  800ed0:	98800017 	ldw	r2,0(r19)
  800ed4:	103fea26 	beq	r2,zero,800e80 <__alt_data_end+0xff800e80>
  800ed8:	00c00744 	movi	r3,29
  800edc:	10c00226 	beq	r2,r3,800ee8 <__sflush_r+0x1fc>
  800ee0:	00c00584 	movi	r3,22
  800ee4:	10ffd21e 	bne	r2,r3,800e30 <__alt_data_end+0xff800e30>
  800ee8:	9c000015 	stw	r16,0(r19)
  800eec:	0005883a 	mov	r2,zero
  800ef0:	003fb306 	br	800dc0 <__alt_data_end+0xff800dc0>

00800ef4 <_fflush_r>:
  800ef4:	defffd04 	addi	sp,sp,-12
  800ef8:	dc000115 	stw	r16,4(sp)
  800efc:	dfc00215 	stw	ra,8(sp)
  800f00:	2021883a 	mov	r16,r4
  800f04:	20000226 	beq	r4,zero,800f10 <_fflush_r+0x1c>
  800f08:	20800e17 	ldw	r2,56(r4)
  800f0c:	10000c26 	beq	r2,zero,800f40 <_fflush_r+0x4c>
  800f10:	2880030f 	ldh	r2,12(r5)
  800f14:	1000051e 	bne	r2,zero,800f2c <_fflush_r+0x38>
  800f18:	0005883a 	mov	r2,zero
  800f1c:	dfc00217 	ldw	ra,8(sp)
  800f20:	dc000117 	ldw	r16,4(sp)
  800f24:	dec00304 	addi	sp,sp,12
  800f28:	f800283a 	ret
  800f2c:	8009883a 	mov	r4,r16
  800f30:	dfc00217 	ldw	ra,8(sp)
  800f34:	dc000117 	ldw	r16,4(sp)
  800f38:	dec00304 	addi	sp,sp,12
  800f3c:	0800cec1 	jmpi	800cec <__sflush_r>
  800f40:	d9400015 	stw	r5,0(sp)
  800f44:	08012d00 	call	8012d0 <__sinit>
  800f48:	d9400017 	ldw	r5,0(sp)
  800f4c:	003ff006 	br	800f10 <__alt_data_end+0xff800f10>

00800f50 <fflush>:
  800f50:	20000526 	beq	r4,zero,800f68 <fflush+0x18>
  800f54:	008020b4 	movhi	r2,130
  800f58:	10b6e204 	addi	r2,r2,-9336
  800f5c:	200b883a 	mov	r5,r4
  800f60:	11000017 	ldw	r4,0(r2)
  800f64:	0800ef41 	jmpi	800ef4 <_fflush_r>
  800f68:	008020b4 	movhi	r2,130
  800f6c:	10b6e104 	addi	r2,r2,-9340
  800f70:	11000017 	ldw	r4,0(r2)
  800f74:	01402034 	movhi	r5,128
  800f78:	2943bd04 	addi	r5,r5,3828
  800f7c:	0801e381 	jmpi	801e38 <_fwalk_reent>

00800f80 <__fp_lock>:
  800f80:	0005883a 	mov	r2,zero
  800f84:	f800283a 	ret

00800f88 <__fp_unlock>:
  800f88:	0005883a 	mov	r2,zero
  800f8c:	f800283a 	ret

00800f90 <_cleanup_r>:
  800f90:	01402034 	movhi	r5,128
  800f94:	2942fa04 	addi	r5,r5,3048
  800f98:	0801e381 	jmpi	801e38 <_fwalk_reent>

00800f9c <__sinit.part.1>:
  800f9c:	defff704 	addi	sp,sp,-36
  800fa0:	00c02034 	movhi	r3,128
  800fa4:	dfc00815 	stw	ra,32(sp)
  800fa8:	ddc00715 	stw	r23,28(sp)
  800fac:	dd800615 	stw	r22,24(sp)
  800fb0:	dd400515 	stw	r21,20(sp)
  800fb4:	dd000415 	stw	r20,16(sp)
  800fb8:	dcc00315 	stw	r19,12(sp)
  800fbc:	dc800215 	stw	r18,8(sp)
  800fc0:	dc400115 	stw	r17,4(sp)
  800fc4:	dc000015 	stw	r16,0(sp)
  800fc8:	18c3e404 	addi	r3,r3,3984
  800fcc:	24000117 	ldw	r16,4(r4)
  800fd0:	20c00f15 	stw	r3,60(r4)
  800fd4:	2080bb04 	addi	r2,r4,748
  800fd8:	00c000c4 	movi	r3,3
  800fdc:	20c0b915 	stw	r3,740(r4)
  800fe0:	2080ba15 	stw	r2,744(r4)
  800fe4:	2000b815 	stw	zero,736(r4)
  800fe8:	05c00204 	movi	r23,8
  800fec:	00800104 	movi	r2,4
  800ff0:	2025883a 	mov	r18,r4
  800ff4:	b80d883a 	mov	r6,r23
  800ff8:	81001704 	addi	r4,r16,92
  800ffc:	000b883a 	mov	r5,zero
  801000:	80000015 	stw	zero,0(r16)
  801004:	80000115 	stw	zero,4(r16)
  801008:	80000215 	stw	zero,8(r16)
  80100c:	8080030d 	sth	r2,12(r16)
  801010:	80001915 	stw	zero,100(r16)
  801014:	8000038d 	sth	zero,14(r16)
  801018:	80000415 	stw	zero,16(r16)
  80101c:	80000515 	stw	zero,20(r16)
  801020:	80000615 	stw	zero,24(r16)
  801024:	0802a600 	call	802a60 <memset>
  801028:	05802034 	movhi	r22,128
  80102c:	94400217 	ldw	r17,8(r18)
  801030:	05402034 	movhi	r21,128
  801034:	05002034 	movhi	r20,128
  801038:	04c02034 	movhi	r19,128
  80103c:	b58c3904 	addi	r22,r22,12516
  801040:	ad4c5004 	addi	r21,r21,12608
  801044:	a50c6f04 	addi	r20,r20,12732
  801048:	9ccc8604 	addi	r19,r19,12824
  80104c:	85800815 	stw	r22,32(r16)
  801050:	85400915 	stw	r21,36(r16)
  801054:	85000a15 	stw	r20,40(r16)
  801058:	84c00b15 	stw	r19,44(r16)
  80105c:	84000715 	stw	r16,28(r16)
  801060:	00800284 	movi	r2,10
  801064:	8880030d 	sth	r2,12(r17)
  801068:	00800044 	movi	r2,1
  80106c:	89001704 	addi	r4,r17,92
  801070:	b80d883a 	mov	r6,r23
  801074:	000b883a 	mov	r5,zero
  801078:	88000015 	stw	zero,0(r17)
  80107c:	88000115 	stw	zero,4(r17)
  801080:	88000215 	stw	zero,8(r17)
  801084:	88001915 	stw	zero,100(r17)
  801088:	8880038d 	sth	r2,14(r17)
  80108c:	88000415 	stw	zero,16(r17)
  801090:	88000515 	stw	zero,20(r17)
  801094:	88000615 	stw	zero,24(r17)
  801098:	0802a600 	call	802a60 <memset>
  80109c:	94000317 	ldw	r16,12(r18)
  8010a0:	00800484 	movi	r2,18
  8010a4:	8c400715 	stw	r17,28(r17)
  8010a8:	8d800815 	stw	r22,32(r17)
  8010ac:	8d400915 	stw	r21,36(r17)
  8010b0:	8d000a15 	stw	r20,40(r17)
  8010b4:	8cc00b15 	stw	r19,44(r17)
  8010b8:	8080030d 	sth	r2,12(r16)
  8010bc:	00800084 	movi	r2,2
  8010c0:	80000015 	stw	zero,0(r16)
  8010c4:	80000115 	stw	zero,4(r16)
  8010c8:	80000215 	stw	zero,8(r16)
  8010cc:	80001915 	stw	zero,100(r16)
  8010d0:	8080038d 	sth	r2,14(r16)
  8010d4:	80000415 	stw	zero,16(r16)
  8010d8:	80000515 	stw	zero,20(r16)
  8010dc:	80000615 	stw	zero,24(r16)
  8010e0:	81001704 	addi	r4,r16,92
  8010e4:	000b883a 	mov	r5,zero
  8010e8:	b80d883a 	mov	r6,r23
  8010ec:	0802a600 	call	802a60 <memset>
  8010f0:	00800044 	movi	r2,1
  8010f4:	84000715 	stw	r16,28(r16)
  8010f8:	85800815 	stw	r22,32(r16)
  8010fc:	85400915 	stw	r21,36(r16)
  801100:	85000a15 	stw	r20,40(r16)
  801104:	84c00b15 	stw	r19,44(r16)
  801108:	90800e15 	stw	r2,56(r18)
  80110c:	dfc00817 	ldw	ra,32(sp)
  801110:	ddc00717 	ldw	r23,28(sp)
  801114:	dd800617 	ldw	r22,24(sp)
  801118:	dd400517 	ldw	r21,20(sp)
  80111c:	dd000417 	ldw	r20,16(sp)
  801120:	dcc00317 	ldw	r19,12(sp)
  801124:	dc800217 	ldw	r18,8(sp)
  801128:	dc400117 	ldw	r17,4(sp)
  80112c:	dc000017 	ldw	r16,0(sp)
  801130:	dec00904 	addi	sp,sp,36
  801134:	f800283a 	ret

00801138 <__sfmoreglue>:
  801138:	defffc04 	addi	sp,sp,-16
  80113c:	dc400115 	stw	r17,4(sp)
  801140:	2c7fffc4 	addi	r17,r5,-1
  801144:	8c401a24 	muli	r17,r17,104
  801148:	dc800215 	stw	r18,8(sp)
  80114c:	2825883a 	mov	r18,r5
  801150:	89401d04 	addi	r5,r17,116
  801154:	dc000015 	stw	r16,0(sp)
  801158:	dfc00315 	stw	ra,12(sp)
  80115c:	08022b80 	call	8022b8 <_malloc_r>
  801160:	1021883a 	mov	r16,r2
  801164:	10000726 	beq	r2,zero,801184 <__sfmoreglue+0x4c>
  801168:	11000304 	addi	r4,r2,12
  80116c:	10000015 	stw	zero,0(r2)
  801170:	14800115 	stw	r18,4(r2)
  801174:	11000215 	stw	r4,8(r2)
  801178:	000b883a 	mov	r5,zero
  80117c:	89801a04 	addi	r6,r17,104
  801180:	0802a600 	call	802a60 <memset>
  801184:	8005883a 	mov	r2,r16
  801188:	dfc00317 	ldw	ra,12(sp)
  80118c:	dc800217 	ldw	r18,8(sp)
  801190:	dc400117 	ldw	r17,4(sp)
  801194:	dc000017 	ldw	r16,0(sp)
  801198:	dec00404 	addi	sp,sp,16
  80119c:	f800283a 	ret

008011a0 <__sfp>:
  8011a0:	008020b4 	movhi	r2,130
  8011a4:	defffb04 	addi	sp,sp,-20
  8011a8:	10b6e104 	addi	r2,r2,-9340
  8011ac:	dc800215 	stw	r18,8(sp)
  8011b0:	14800017 	ldw	r18,0(r2)
  8011b4:	dcc00315 	stw	r19,12(sp)
  8011b8:	dfc00415 	stw	ra,16(sp)
  8011bc:	90800e17 	ldw	r2,56(r18)
  8011c0:	dc400115 	stw	r17,4(sp)
  8011c4:	dc000015 	stw	r16,0(sp)
  8011c8:	2027883a 	mov	r19,r4
  8011cc:	1000021e 	bne	r2,zero,8011d8 <__sfp+0x38>
  8011d0:	9009883a 	mov	r4,r18
  8011d4:	0800f9c0 	call	800f9c <__sinit.part.1>
  8011d8:	9480b804 	addi	r18,r18,736
  8011dc:	047fffc4 	movi	r17,-1
  8011e0:	91400117 	ldw	r5,4(r18)
  8011e4:	94000217 	ldw	r16,8(r18)
  8011e8:	297fffc4 	addi	r5,r5,-1
  8011ec:	28000a16 	blt	r5,zero,801218 <__sfp+0x78>
  8011f0:	8080030f 	ldh	r2,12(r16)
  8011f4:	10000c26 	beq	r2,zero,801228 <__sfp+0x88>
  8011f8:	80c01d04 	addi	r3,r16,116
  8011fc:	00000206 	br	801208 <__sfp+0x68>
  801200:	18bfe60f 	ldh	r2,-104(r3)
  801204:	10000826 	beq	r2,zero,801228 <__sfp+0x88>
  801208:	297fffc4 	addi	r5,r5,-1
  80120c:	1c3ffd04 	addi	r16,r3,-12
  801210:	18c01a04 	addi	r3,r3,104
  801214:	2c7ffa1e 	bne	r5,r17,801200 <__alt_data_end+0xff801200>
  801218:	90800017 	ldw	r2,0(r18)
  80121c:	10001d26 	beq	r2,zero,801294 <__sfp+0xf4>
  801220:	1025883a 	mov	r18,r2
  801224:	003fee06 	br	8011e0 <__alt_data_end+0xff8011e0>
  801228:	00bfffc4 	movi	r2,-1
  80122c:	8080038d 	sth	r2,14(r16)
  801230:	00800044 	movi	r2,1
  801234:	8080030d 	sth	r2,12(r16)
  801238:	80001915 	stw	zero,100(r16)
  80123c:	80000015 	stw	zero,0(r16)
  801240:	80000215 	stw	zero,8(r16)
  801244:	80000115 	stw	zero,4(r16)
  801248:	80000415 	stw	zero,16(r16)
  80124c:	80000515 	stw	zero,20(r16)
  801250:	80000615 	stw	zero,24(r16)
  801254:	81001704 	addi	r4,r16,92
  801258:	000b883a 	mov	r5,zero
  80125c:	01800204 	movi	r6,8
  801260:	0802a600 	call	802a60 <memset>
  801264:	8005883a 	mov	r2,r16
  801268:	80000c15 	stw	zero,48(r16)
  80126c:	80000d15 	stw	zero,52(r16)
  801270:	80001115 	stw	zero,68(r16)
  801274:	80001215 	stw	zero,72(r16)
  801278:	dfc00417 	ldw	ra,16(sp)
  80127c:	dcc00317 	ldw	r19,12(sp)
  801280:	dc800217 	ldw	r18,8(sp)
  801284:	dc400117 	ldw	r17,4(sp)
  801288:	dc000017 	ldw	r16,0(sp)
  80128c:	dec00504 	addi	sp,sp,20
  801290:	f800283a 	ret
  801294:	9809883a 	mov	r4,r19
  801298:	01400104 	movi	r5,4
  80129c:	08011380 	call	801138 <__sfmoreglue>
  8012a0:	90800015 	stw	r2,0(r18)
  8012a4:	103fde1e 	bne	r2,zero,801220 <__alt_data_end+0xff801220>
  8012a8:	00800304 	movi	r2,12
  8012ac:	98800015 	stw	r2,0(r19)
  8012b0:	0005883a 	mov	r2,zero
  8012b4:	003ff006 	br	801278 <__alt_data_end+0xff801278>

008012b8 <_cleanup>:
  8012b8:	008020b4 	movhi	r2,130
  8012bc:	10b6e104 	addi	r2,r2,-9340
  8012c0:	11000017 	ldw	r4,0(r2)
  8012c4:	01402034 	movhi	r5,128
  8012c8:	2942fa04 	addi	r5,r5,3048
  8012cc:	0801e381 	jmpi	801e38 <_fwalk_reent>

008012d0 <__sinit>:
  8012d0:	20800e17 	ldw	r2,56(r4)
  8012d4:	10000126 	beq	r2,zero,8012dc <__sinit+0xc>
  8012d8:	f800283a 	ret
  8012dc:	0800f9c1 	jmpi	800f9c <__sinit.part.1>

008012e0 <__sfp_lock_acquire>:
  8012e0:	f800283a 	ret

008012e4 <__sfp_lock_release>:
  8012e4:	f800283a 	ret

008012e8 <__sinit_lock_acquire>:
  8012e8:	f800283a 	ret

008012ec <__sinit_lock_release>:
  8012ec:	f800283a 	ret

008012f0 <__fp_lock_all>:
  8012f0:	008020b4 	movhi	r2,130
  8012f4:	10b6e204 	addi	r2,r2,-9336
  8012f8:	11000017 	ldw	r4,0(r2)
  8012fc:	01402034 	movhi	r5,128
  801300:	2943e004 	addi	r5,r5,3968
  801304:	0801d741 	jmpi	801d74 <_fwalk>

00801308 <__fp_unlock_all>:
  801308:	008020b4 	movhi	r2,130
  80130c:	10b6e204 	addi	r2,r2,-9336
  801310:	11000017 	ldw	r4,0(r2)
  801314:	01402034 	movhi	r5,128
  801318:	2943e204 	addi	r5,r5,3976
  80131c:	0801d741 	jmpi	801d74 <_fwalk>

00801320 <_fopen_r>:
  801320:	defffa04 	addi	sp,sp,-24
  801324:	dcc00415 	stw	r19,16(sp)
  801328:	2827883a 	mov	r19,r5
  80132c:	300b883a 	mov	r5,r6
  801330:	d80d883a 	mov	r6,sp
  801334:	dc800315 	stw	r18,12(sp)
  801338:	dc400215 	stw	r17,8(sp)
  80133c:	dfc00515 	stw	ra,20(sp)
  801340:	dc000115 	stw	r16,4(sp)
  801344:	2025883a 	mov	r18,r4
  801348:	080850c0 	call	80850c <__sflags>
  80134c:	1023883a 	mov	r17,r2
  801350:	10002626 	beq	r2,zero,8013ec <_fopen_r+0xcc>
  801354:	9009883a 	mov	r4,r18
  801358:	08011a00 	call	8011a0 <__sfp>
  80135c:	1021883a 	mov	r16,r2
  801360:	10002226 	beq	r2,zero,8013ec <_fopen_r+0xcc>
  801364:	d9800017 	ldw	r6,0(sp)
  801368:	9009883a 	mov	r4,r18
  80136c:	980b883a 	mov	r5,r19
  801370:	01c06d84 	movi	r7,438
  801374:	0802b840 	call	802b84 <_open_r>
  801378:	10001916 	blt	r2,zero,8013e0 <_fopen_r+0xc0>
  80137c:	8080038d 	sth	r2,14(r16)
  801380:	00802034 	movhi	r2,128
  801384:	108c3904 	addi	r2,r2,12516
  801388:	80800815 	stw	r2,32(r16)
  80138c:	00802034 	movhi	r2,128
  801390:	108c5004 	addi	r2,r2,12608
  801394:	80800915 	stw	r2,36(r16)
  801398:	00802034 	movhi	r2,128
  80139c:	108c6f04 	addi	r2,r2,12732
  8013a0:	80800a15 	stw	r2,40(r16)
  8013a4:	00802034 	movhi	r2,128
  8013a8:	108c8604 	addi	r2,r2,12824
  8013ac:	8440030d 	sth	r17,12(r16)
  8013b0:	84000715 	stw	r16,28(r16)
  8013b4:	80800b15 	stw	r2,44(r16)
  8013b8:	8c40400c 	andi	r17,r17,256
  8013bc:	88000d1e 	bne	r17,zero,8013f4 <_fopen_r+0xd4>
  8013c0:	8005883a 	mov	r2,r16
  8013c4:	dfc00517 	ldw	ra,20(sp)
  8013c8:	dcc00417 	ldw	r19,16(sp)
  8013cc:	dc800317 	ldw	r18,12(sp)
  8013d0:	dc400217 	ldw	r17,8(sp)
  8013d4:	dc000117 	ldw	r16,4(sp)
  8013d8:	dec00604 	addi	sp,sp,24
  8013dc:	f800283a 	ret
  8013e0:	08012e00 	call	8012e0 <__sfp_lock_acquire>
  8013e4:	8000030d 	sth	zero,12(r16)
  8013e8:	08012e40 	call	8012e4 <__sfp_lock_release>
  8013ec:	0005883a 	mov	r2,zero
  8013f0:	003ff406 	br	8013c4 <__alt_data_end+0xff8013c4>
  8013f4:	9009883a 	mov	r4,r18
  8013f8:	800b883a 	mov	r5,r16
  8013fc:	000d883a 	mov	r6,zero
  801400:	01c00084 	movi	r7,2
  801404:	080188c0 	call	80188c <_fseek_r>
  801408:	8005883a 	mov	r2,r16
  80140c:	003fed06 	br	8013c4 <__alt_data_end+0xff8013c4>

00801410 <fopen>:
  801410:	00c020b4 	movhi	r3,130
  801414:	18f6e204 	addi	r3,r3,-9336
  801418:	2005883a 	mov	r2,r4
  80141c:	19000017 	ldw	r4,0(r3)
  801420:	280d883a 	mov	r6,r5
  801424:	100b883a 	mov	r5,r2
  801428:	08013201 	jmpi	801320 <_fopen_r>

0080142c <_fprintf_r>:
  80142c:	defffe04 	addi	sp,sp,-8
  801430:	2809883a 	mov	r4,r5
  801434:	dfc00015 	stw	ra,0(sp)
  801438:	d9c00115 	stw	r7,4(sp)
  80143c:	300b883a 	mov	r5,r6
  801440:	d9800104 	addi	r6,sp,4
  801444:	08069000 	call	806900 <__vfprintf_internal>
  801448:	dfc00017 	ldw	ra,0(sp)
  80144c:	dec00204 	addi	sp,sp,8
  801450:	f800283a 	ret

00801454 <fprintf>:
  801454:	defffd04 	addi	sp,sp,-12
  801458:	dfc00015 	stw	ra,0(sp)
  80145c:	d9800115 	stw	r6,4(sp)
  801460:	d9c00215 	stw	r7,8(sp)
  801464:	d9800104 	addi	r6,sp,4
  801468:	08069000 	call	806900 <__vfprintf_internal>
  80146c:	dfc00017 	ldw	ra,0(sp)
  801470:	dec00304 	addi	sp,sp,12
  801474:	f800283a 	ret

00801478 <_malloc_trim_r>:
  801478:	defffb04 	addi	sp,sp,-20
  80147c:	dcc00315 	stw	r19,12(sp)
  801480:	04c020b4 	movhi	r19,130
  801484:	dc800215 	stw	r18,8(sp)
  801488:	dc400115 	stw	r17,4(sp)
  80148c:	dc000015 	stw	r16,0(sp)
  801490:	dfc00415 	stw	ra,16(sp)
  801494:	2821883a 	mov	r16,r5
  801498:	9cf0ae04 	addi	r19,r19,-15688
  80149c:	2025883a 	mov	r18,r4
  8014a0:	08178380 	call	817838 <__malloc_lock>
  8014a4:	98800217 	ldw	r2,8(r19)
  8014a8:	14400117 	ldw	r17,4(r2)
  8014ac:	00bfff04 	movi	r2,-4
  8014b0:	88a2703a 	and	r17,r17,r2
  8014b4:	8c21c83a 	sub	r16,r17,r16
  8014b8:	8403fbc4 	addi	r16,r16,4079
  8014bc:	8020d33a 	srli	r16,r16,12
  8014c0:	0083ffc4 	movi	r2,4095
  8014c4:	843fffc4 	addi	r16,r16,-1
  8014c8:	8020933a 	slli	r16,r16,12
  8014cc:	1400060e 	bge	r2,r16,8014e8 <_malloc_trim_r+0x70>
  8014d0:	9009883a 	mov	r4,r18
  8014d4:	000b883a 	mov	r5,zero
  8014d8:	0802f9c0 	call	802f9c <_sbrk_r>
  8014dc:	98c00217 	ldw	r3,8(r19)
  8014e0:	1c47883a 	add	r3,r3,r17
  8014e4:	10c00a26 	beq	r2,r3,801510 <_malloc_trim_r+0x98>
  8014e8:	9009883a 	mov	r4,r18
  8014ec:	08178580 	call	817858 <__malloc_unlock>
  8014f0:	0005883a 	mov	r2,zero
  8014f4:	dfc00417 	ldw	ra,16(sp)
  8014f8:	dcc00317 	ldw	r19,12(sp)
  8014fc:	dc800217 	ldw	r18,8(sp)
  801500:	dc400117 	ldw	r17,4(sp)
  801504:	dc000017 	ldw	r16,0(sp)
  801508:	dec00504 	addi	sp,sp,20
  80150c:	f800283a 	ret
  801510:	9009883a 	mov	r4,r18
  801514:	040bc83a 	sub	r5,zero,r16
  801518:	0802f9c0 	call	802f9c <_sbrk_r>
  80151c:	00ffffc4 	movi	r3,-1
  801520:	10c00d26 	beq	r2,r3,801558 <_malloc_trim_r+0xe0>
  801524:	00c020b4 	movhi	r3,130
  801528:	18fe5b04 	addi	r3,r3,-1684
  80152c:	18800017 	ldw	r2,0(r3)
  801530:	99000217 	ldw	r4,8(r19)
  801534:	8c23c83a 	sub	r17,r17,r16
  801538:	8c400054 	ori	r17,r17,1
  80153c:	1421c83a 	sub	r16,r2,r16
  801540:	24400115 	stw	r17,4(r4)
  801544:	9009883a 	mov	r4,r18
  801548:	1c000015 	stw	r16,0(r3)
  80154c:	08178580 	call	817858 <__malloc_unlock>
  801550:	00800044 	movi	r2,1
  801554:	003fe706 	br	8014f4 <__alt_data_end+0xff8014f4>
  801558:	9009883a 	mov	r4,r18
  80155c:	000b883a 	mov	r5,zero
  801560:	0802f9c0 	call	802f9c <_sbrk_r>
  801564:	99000217 	ldw	r4,8(r19)
  801568:	014003c4 	movi	r5,15
  80156c:	1107c83a 	sub	r3,r2,r4
  801570:	28ffdd0e 	bge	r5,r3,8014e8 <__alt_data_end+0xff8014e8>
  801574:	014020b4 	movhi	r5,130
  801578:	2976e304 	addi	r5,r5,-9332
  80157c:	29400017 	ldw	r5,0(r5)
  801580:	18c00054 	ori	r3,r3,1
  801584:	20c00115 	stw	r3,4(r4)
  801588:	00c020b4 	movhi	r3,130
  80158c:	1145c83a 	sub	r2,r2,r5
  801590:	18fe5b04 	addi	r3,r3,-1684
  801594:	18800015 	stw	r2,0(r3)
  801598:	003fd306 	br	8014e8 <__alt_data_end+0xff8014e8>

0080159c <_free_r>:
  80159c:	28004c26 	beq	r5,zero,8016d0 <_free_r+0x134>
  8015a0:	defffd04 	addi	sp,sp,-12
  8015a4:	dc400115 	stw	r17,4(sp)
  8015a8:	dc000015 	stw	r16,0(sp)
  8015ac:	2023883a 	mov	r17,r4
  8015b0:	2821883a 	mov	r16,r5
  8015b4:	dfc00215 	stw	ra,8(sp)
  8015b8:	08178380 	call	817838 <__malloc_lock>
  8015bc:	813fff17 	ldw	r4,-4(r16)
  8015c0:	00bfff84 	movi	r2,-2
  8015c4:	024020b4 	movhi	r9,130
  8015c8:	81bffe04 	addi	r6,r16,-8
  8015cc:	2084703a 	and	r2,r4,r2
  8015d0:	4a70ae04 	addi	r9,r9,-15688
  8015d4:	308b883a 	add	r5,r6,r2
  8015d8:	2a000117 	ldw	r8,4(r5)
  8015dc:	49c00217 	ldw	r7,8(r9)
  8015e0:	00ffff04 	movi	r3,-4
  8015e4:	40c6703a 	and	r3,r8,r3
  8015e8:	39405326 	beq	r7,r5,801738 <_free_r+0x19c>
  8015ec:	28c00115 	stw	r3,4(r5)
  8015f0:	2100004c 	andi	r4,r4,1
  8015f4:	2000091e 	bne	r4,zero,80161c <_free_r+0x80>
  8015f8:	81fffe17 	ldw	r7,-8(r16)
  8015fc:	4a000204 	addi	r8,r9,8
  801600:	31cdc83a 	sub	r6,r6,r7
  801604:	31000217 	ldw	r4,8(r6)
  801608:	11c5883a 	add	r2,r2,r7
  80160c:	22006126 	beq	r4,r8,801794 <_free_r+0x1f8>
  801610:	31c00317 	ldw	r7,12(r6)
  801614:	21c00315 	stw	r7,12(r4)
  801618:	39000215 	stw	r4,8(r7)
  80161c:	28c9883a 	add	r4,r5,r3
  801620:	21c00117 	ldw	r7,4(r4)
  801624:	39c0004c 	andi	r7,r7,1
  801628:	38000d1e 	bne	r7,zero,801660 <_free_r+0xc4>
  80162c:	29000217 	ldw	r4,8(r5)
  801630:	10c5883a 	add	r2,r2,r3
  801634:	00c020b4 	movhi	r3,130
  801638:	18f0b004 	addi	r3,r3,-15680
  80163c:	20c07526 	beq	r4,r3,801814 <_free_r+0x278>
  801640:	29c00317 	ldw	r7,12(r5)
  801644:	11400054 	ori	r5,r2,1
  801648:	3087883a 	add	r3,r6,r2
  80164c:	21c00315 	stw	r7,12(r4)
  801650:	39000215 	stw	r4,8(r7)
  801654:	31400115 	stw	r5,4(r6)
  801658:	18800015 	stw	r2,0(r3)
  80165c:	00000406 	br	801670 <_free_r+0xd4>
  801660:	10c00054 	ori	r3,r2,1
  801664:	30c00115 	stw	r3,4(r6)
  801668:	3087883a 	add	r3,r6,r2
  80166c:	18800015 	stw	r2,0(r3)
  801670:	00c07fc4 	movi	r3,511
  801674:	18801736 	bltu	r3,r2,8016d4 <_free_r+0x138>
  801678:	1004d0fa 	srli	r2,r2,3
  80167c:	01400044 	movi	r5,1
  801680:	49000117 	ldw	r4,4(r9)
  801684:	1087883a 	add	r3,r2,r2
  801688:	18c7883a 	add	r3,r3,r3
  80168c:	1005d0ba 	srai	r2,r2,2
  801690:	18c7883a 	add	r3,r3,r3
  801694:	1a47883a 	add	r3,r3,r9
  801698:	19c00217 	ldw	r7,8(r3)
  80169c:	2884983a 	sll	r2,r5,r2
  8016a0:	30c00315 	stw	r3,12(r6)
  8016a4:	31c00215 	stw	r7,8(r6)
  8016a8:	1104b03a 	or	r2,r2,r4
  8016ac:	19800215 	stw	r6,8(r3)
  8016b0:	48800115 	stw	r2,4(r9)
  8016b4:	39800315 	stw	r6,12(r7)
  8016b8:	8809883a 	mov	r4,r17
  8016bc:	dfc00217 	ldw	ra,8(sp)
  8016c0:	dc400117 	ldw	r17,4(sp)
  8016c4:	dc000017 	ldw	r16,0(sp)
  8016c8:	dec00304 	addi	sp,sp,12
  8016cc:	08178581 	jmpi	817858 <__malloc_unlock>
  8016d0:	f800283a 	ret
  8016d4:	1006d27a 	srli	r3,r2,9
  8016d8:	01000104 	movi	r4,4
  8016dc:	20c04036 	bltu	r4,r3,8017e0 <_free_r+0x244>
  8016e0:	1006d1ba 	srli	r3,r2,6
  8016e4:	19400e04 	addi	r5,r3,56
  8016e8:	2947883a 	add	r3,r5,r5
  8016ec:	18c7883a 	add	r3,r3,r3
  8016f0:	18c7883a 	add	r3,r3,r3
  8016f4:	1a49883a 	add	r4,r3,r9
  8016f8:	20c00217 	ldw	r3,8(r4)
  8016fc:	01c020b4 	movhi	r7,130
  801700:	39f0ae04 	addi	r7,r7,-15688
  801704:	19003b26 	beq	r3,r4,8017f4 <_free_r+0x258>
  801708:	01ffff04 	movi	r7,-4
  80170c:	19400117 	ldw	r5,4(r3)
  801710:	29ca703a 	and	r5,r5,r7
  801714:	1140022e 	bgeu	r2,r5,801720 <_free_r+0x184>
  801718:	18c00217 	ldw	r3,8(r3)
  80171c:	20fffb1e 	bne	r4,r3,80170c <__alt_data_end+0xff80170c>
  801720:	18800317 	ldw	r2,12(r3)
  801724:	30800315 	stw	r2,12(r6)
  801728:	30c00215 	stw	r3,8(r6)
  80172c:	11800215 	stw	r6,8(r2)
  801730:	19800315 	stw	r6,12(r3)
  801734:	003fe006 	br	8016b8 <__alt_data_end+0xff8016b8>
  801738:	2100004c 	andi	r4,r4,1
  80173c:	1885883a 	add	r2,r3,r2
  801740:	2000071e 	bne	r4,zero,801760 <_free_r+0x1c4>
  801744:	817ffe17 	ldw	r5,-8(r16)
  801748:	314dc83a 	sub	r6,r6,r5
  80174c:	30c00317 	ldw	r3,12(r6)
  801750:	31000217 	ldw	r4,8(r6)
  801754:	1145883a 	add	r2,r2,r5
  801758:	20c00315 	stw	r3,12(r4)
  80175c:	19000215 	stw	r4,8(r3)
  801760:	10c00054 	ori	r3,r2,1
  801764:	30c00115 	stw	r3,4(r6)
  801768:	00c020b4 	movhi	r3,130
  80176c:	18f6e404 	addi	r3,r3,-9328
  801770:	18c00017 	ldw	r3,0(r3)
  801774:	49800215 	stw	r6,8(r9)
  801778:	10ffcf36 	bltu	r2,r3,8016b8 <__alt_data_end+0xff8016b8>
  80177c:	008020b4 	movhi	r2,130
  801780:	10be5004 	addi	r2,r2,-1728
  801784:	11400017 	ldw	r5,0(r2)
  801788:	8809883a 	mov	r4,r17
  80178c:	08014780 	call	801478 <_malloc_trim_r>
  801790:	003fc906 	br	8016b8 <__alt_data_end+0xff8016b8>
  801794:	28c9883a 	add	r4,r5,r3
  801798:	21000117 	ldw	r4,4(r4)
  80179c:	2100004c 	andi	r4,r4,1
  8017a0:	20000a1e 	bne	r4,zero,8017cc <_free_r+0x230>
  8017a4:	29000317 	ldw	r4,12(r5)
  8017a8:	29400217 	ldw	r5,8(r5)
  8017ac:	10c5883a 	add	r2,r2,r3
  8017b0:	10c00054 	ori	r3,r2,1
  8017b4:	29000315 	stw	r4,12(r5)
  8017b8:	21400215 	stw	r5,8(r4)
  8017bc:	30c00115 	stw	r3,4(r6)
  8017c0:	308d883a 	add	r6,r6,r2
  8017c4:	30800015 	stw	r2,0(r6)
  8017c8:	003fbb06 	br	8016b8 <__alt_data_end+0xff8016b8>
  8017cc:	10c00054 	ori	r3,r2,1
  8017d0:	30c00115 	stw	r3,4(r6)
  8017d4:	308d883a 	add	r6,r6,r2
  8017d8:	30800015 	stw	r2,0(r6)
  8017dc:	003fb606 	br	8016b8 <__alt_data_end+0xff8016b8>
  8017e0:	01000504 	movi	r4,20
  8017e4:	20c01436 	bltu	r4,r3,801838 <_free_r+0x29c>
  8017e8:	194016c4 	addi	r5,r3,91
  8017ec:	2947883a 	add	r3,r5,r5
  8017f0:	003fbe06 	br	8016ec <__alt_data_end+0xff8016ec>
  8017f4:	280bd0ba 	srai	r5,r5,2
  8017f8:	00800044 	movi	r2,1
  8017fc:	39000117 	ldw	r4,4(r7)
  801800:	114a983a 	sll	r5,r2,r5
  801804:	1805883a 	mov	r2,r3
  801808:	2908b03a 	or	r4,r5,r4
  80180c:	39000115 	stw	r4,4(r7)
  801810:	003fc406 	br	801724 <__alt_data_end+0xff801724>
  801814:	49800515 	stw	r6,20(r9)
  801818:	49800415 	stw	r6,16(r9)
  80181c:	10c00054 	ori	r3,r2,1
  801820:	31000315 	stw	r4,12(r6)
  801824:	31000215 	stw	r4,8(r6)
  801828:	30c00115 	stw	r3,4(r6)
  80182c:	308d883a 	add	r6,r6,r2
  801830:	30800015 	stw	r2,0(r6)
  801834:	003fa006 	br	8016b8 <__alt_data_end+0xff8016b8>
  801838:	01001504 	movi	r4,84
  80183c:	20c00436 	bltu	r4,r3,801850 <_free_r+0x2b4>
  801840:	1006d33a 	srli	r3,r2,12
  801844:	19401b84 	addi	r5,r3,110
  801848:	2947883a 	add	r3,r5,r5
  80184c:	003fa706 	br	8016ec <__alt_data_end+0xff8016ec>
  801850:	01005504 	movi	r4,340
  801854:	20c00436 	bltu	r4,r3,801868 <_free_r+0x2cc>
  801858:	1006d3fa 	srli	r3,r2,15
  80185c:	19401dc4 	addi	r5,r3,119
  801860:	2947883a 	add	r3,r5,r5
  801864:	003fa106 	br	8016ec <__alt_data_end+0xff8016ec>
  801868:	01015504 	movi	r4,1364
  80186c:	20c00436 	bltu	r4,r3,801880 <_free_r+0x2e4>
  801870:	1006d4ba 	srli	r3,r2,18
  801874:	19401f04 	addi	r5,r3,124
  801878:	2947883a 	add	r3,r5,r5
  80187c:	003f9b06 	br	8016ec <__alt_data_end+0xff8016ec>
  801880:	00c03f04 	movi	r3,252
  801884:	01401f84 	movi	r5,126
  801888:	003f9806 	br	8016ec <__alt_data_end+0xff8016ec>

0080188c <_fseek_r>:
  80188c:	08018b41 	jmpi	8018b4 <_fseeko_r>

00801890 <fseek>:
  801890:	2007883a 	mov	r3,r4
  801894:	010020b4 	movhi	r4,130
  801898:	2136e204 	addi	r4,r4,-9336
  80189c:	21000017 	ldw	r4,0(r4)
  8018a0:	2805883a 	mov	r2,r5
  8018a4:	300f883a 	mov	r7,r6
  8018a8:	180b883a 	mov	r5,r3
  8018ac:	100d883a 	mov	r6,r2
  8018b0:	08018b41 	jmpi	8018b4 <_fseeko_r>

008018b4 <_fseeko_r>:
  8018b4:	deffe804 	addi	sp,sp,-96
  8018b8:	dd401415 	stw	r21,80(sp)
  8018bc:	dc801115 	stw	r18,68(sp)
  8018c0:	dc401015 	stw	r17,64(sp)
  8018c4:	dc000f15 	stw	r16,60(sp)
  8018c8:	dfc01715 	stw	ra,92(sp)
  8018cc:	ddc01615 	stw	r23,88(sp)
  8018d0:	dd801515 	stw	r22,84(sp)
  8018d4:	dd001315 	stw	r20,76(sp)
  8018d8:	dcc01215 	stw	r19,72(sp)
  8018dc:	2023883a 	mov	r17,r4
  8018e0:	2821883a 	mov	r16,r5
  8018e4:	302b883a 	mov	r21,r6
  8018e8:	3825883a 	mov	r18,r7
  8018ec:	20000226 	beq	r4,zero,8018f8 <_fseeko_r+0x44>
  8018f0:	20800e17 	ldw	r2,56(r4)
  8018f4:	10005a26 	beq	r2,zero,801a60 <_fseeko_r+0x1ac>
  8018f8:	8080030b 	ldhu	r2,12(r16)
  8018fc:	00c04204 	movi	r3,264
  801900:	1080420c 	andi	r2,r2,264
  801904:	10c05b26 	beq	r2,r3,801a74 <_fseeko_r+0x1c0>
  801908:	85000a17 	ldw	r20,40(r16)
  80190c:	a000f626 	beq	r20,zero,801ce8 <_fseeko_r+0x434>
  801910:	00800044 	movi	r2,1
  801914:	90803e26 	beq	r18,r2,801a10 <_fseeko_r+0x15c>
  801918:	00800084 	movi	r2,2
  80191c:	90801026 	beq	r18,r2,801960 <_fseeko_r+0xac>
  801920:	90000f26 	beq	r18,zero,801960 <_fseeko_r+0xac>
  801924:	00800584 	movi	r2,22
  801928:	88800015 	stw	r2,0(r17)
  80192c:	04ffffc4 	movi	r19,-1
  801930:	9805883a 	mov	r2,r19
  801934:	dfc01717 	ldw	ra,92(sp)
  801938:	ddc01617 	ldw	r23,88(sp)
  80193c:	dd801517 	ldw	r22,84(sp)
  801940:	dd401417 	ldw	r21,80(sp)
  801944:	dd001317 	ldw	r20,76(sp)
  801948:	dcc01217 	ldw	r19,72(sp)
  80194c:	dc801117 	ldw	r18,68(sp)
  801950:	dc401017 	ldw	r17,64(sp)
  801954:	dc000f17 	ldw	r16,60(sp)
  801958:	dec01804 	addi	sp,sp,96
  80195c:	f800283a 	ret
  801960:	80800417 	ldw	r2,16(r16)
  801964:	002f883a 	mov	r23,zero
  801968:	0027883a 	mov	r19,zero
  80196c:	1000cb26 	beq	r2,zero,801c9c <_fseeko_r+0x3e8>
  801970:	8080030b 	ldhu	r2,12(r16)
  801974:	10c2068c 	andi	r3,r2,2074
  801978:	1800071e 	bne	r3,zero,801998 <_fseeko_r+0xe4>
  80197c:	10c1000c 	andi	r3,r2,1024
  801980:	1800451e 	bne	r3,zero,801a98 <_fseeko_r+0x1e4>
  801984:	00c02034 	movhi	r3,128
  801988:	18cc6f04 	addi	r3,r3,12732
  80198c:	a0c0b726 	beq	r20,r3,801c6c <_fseeko_r+0x3b8>
  801990:	10820014 	ori	r2,r2,2048
  801994:	8080030d 	sth	r2,12(r16)
  801998:	8809883a 	mov	r4,r17
  80199c:	800b883a 	mov	r5,r16
  8019a0:	0800ef40 	call	800ef4 <_fflush_r>
  8019a4:	1027883a 	mov	r19,r2
  8019a8:	103fe01e 	bne	r2,zero,80192c <__alt_data_end+0xff80192c>
  8019ac:	81400717 	ldw	r5,28(r16)
  8019b0:	8809883a 	mov	r4,r17
  8019b4:	a80d883a 	mov	r6,r21
  8019b8:	900f883a 	mov	r7,r18
  8019bc:	a03ee83a 	callr	r20
  8019c0:	00ffffc4 	movi	r3,-1
  8019c4:	10ffd926 	beq	r2,r3,80192c <__alt_data_end+0xff80192c>
  8019c8:	81400c17 	ldw	r5,48(r16)
  8019cc:	28000526 	beq	r5,zero,8019e4 <_fseeko_r+0x130>
  8019d0:	80801004 	addi	r2,r16,64
  8019d4:	28800226 	beq	r5,r2,8019e0 <_fseeko_r+0x12c>
  8019d8:	8809883a 	mov	r4,r17
  8019dc:	080159c0 	call	80159c <_free_r>
  8019e0:	80000c15 	stw	zero,48(r16)
  8019e4:	8080030b 	ldhu	r2,12(r16)
  8019e8:	80c00417 	ldw	r3,16(r16)
  8019ec:	80000115 	stw	zero,4(r16)
  8019f0:	10bdf7cc 	andi	r2,r2,63455
  8019f4:	80c00015 	stw	r3,0(r16)
  8019f8:	8080030d 	sth	r2,12(r16)
  8019fc:	81001704 	addi	r4,r16,92
  801a00:	000b883a 	mov	r5,zero
  801a04:	01800204 	movi	r6,8
  801a08:	0802a600 	call	802a60 <memset>
  801a0c:	003fc806 	br	801930 <__alt_data_end+0xff801930>
  801a10:	8809883a 	mov	r4,r17
  801a14:	800b883a 	mov	r5,r16
  801a18:	0800ef40 	call	800ef4 <_fflush_r>
  801a1c:	8080030b 	ldhu	r2,12(r16)
  801a20:	10c4000c 	andi	r3,r2,4096
  801a24:	18008726 	beq	r3,zero,801c44 <_fseeko_r+0x390>
  801a28:	84c01417 	ldw	r19,80(r16)
  801a2c:	10c0010c 	andi	r3,r2,4
  801a30:	1800431e 	bne	r3,zero,801b40 <_fseeko_r+0x28c>
  801a34:	1080020c 	andi	r2,r2,8
  801a38:	10008026 	beq	r2,zero,801c3c <_fseeko_r+0x388>
  801a3c:	80c00017 	ldw	r3,0(r16)
  801a40:	80800417 	ldw	r2,16(r16)
  801a44:	18000226 	beq	r3,zero,801a50 <_fseeko_r+0x19c>
  801a48:	1887c83a 	sub	r3,r3,r2
  801a4c:	98e7883a 	add	r19,r19,r3
  801a50:	aceb883a 	add	r21,r21,r19
  801a54:	05c00044 	movi	r23,1
  801a58:	0025883a 	mov	r18,zero
  801a5c:	003fc306 	br	80196c <__alt_data_end+0xff80196c>
  801a60:	08012d00 	call	8012d0 <__sinit>
  801a64:	8080030b 	ldhu	r2,12(r16)
  801a68:	00c04204 	movi	r3,264
  801a6c:	1080420c 	andi	r2,r2,264
  801a70:	10ffa51e 	bne	r2,r3,801908 <__alt_data_end+0xff801908>
  801a74:	8809883a 	mov	r4,r17
  801a78:	800b883a 	mov	r5,r16
  801a7c:	0800ef40 	call	800ef4 <_fflush_r>
  801a80:	003fa106 	br	801908 <__alt_data_end+0xff801908>
  801a84:	8080030b 	ldhu	r2,12(r16)
  801a88:	00c10004 	movi	r3,1024
  801a8c:	80c01315 	stw	r3,76(r16)
  801a90:	10c4b03a 	or	r2,r2,r3
  801a94:	8080030d 	sth	r2,12(r16)
  801a98:	9000311e 	bne	r18,zero,801b60 <_fseeko_r+0x2ac>
  801a9c:	a82d883a 	mov	r22,r21
  801aa0:	b800371e 	bne	r23,zero,801b80 <_fseeko_r+0x2cc>
  801aa4:	8080030b 	ldhu	r2,12(r16)
  801aa8:	1084000c 	andi	r2,r2,4096
  801aac:	10007f26 	beq	r2,zero,801cac <_fseeko_r+0x3f8>
  801ab0:	80801417 	ldw	r2,80(r16)
  801ab4:	81800117 	ldw	r6,4(r16)
  801ab8:	81400c17 	ldw	r5,48(r16)
  801abc:	11a7c83a 	sub	r19,r2,r6
  801ac0:	28008226 	beq	r5,zero,801ccc <_fseeko_r+0x418>
  801ac4:	81c00f17 	ldw	r7,60(r16)
  801ac8:	99e7c83a 	sub	r19,r19,r7
  801acc:	81000e17 	ldw	r4,56(r16)
  801ad0:	80800417 	ldw	r2,16(r16)
  801ad4:	99a7883a 	add	r19,r19,r6
  801ad8:	2087c83a 	sub	r3,r4,r2
  801adc:	98e7c83a 	sub	r19,r19,r3
  801ae0:	38c7883a 	add	r3,r7,r3
  801ae4:	b4c02b16 	blt	r22,r19,801b94 <_fseeko_r+0x2e0>
  801ae8:	98c9883a 	add	r4,r19,r3
  801aec:	b100292e 	bgeu	r22,r4,801b94 <_fseeko_r+0x2e0>
  801af0:	b4e7c83a 	sub	r19,r22,r19
  801af4:	14c5883a 	add	r2,r2,r19
  801af8:	1ce7c83a 	sub	r19,r3,r19
  801afc:	80800015 	stw	r2,0(r16)
  801b00:	84c00115 	stw	r19,4(r16)
  801b04:	28000526 	beq	r5,zero,801b1c <_fseeko_r+0x268>
  801b08:	80801004 	addi	r2,r16,64
  801b0c:	28800226 	beq	r5,r2,801b18 <_fseeko_r+0x264>
  801b10:	8809883a 	mov	r4,r17
  801b14:	080159c0 	call	80159c <_free_r>
  801b18:	80000c15 	stw	zero,48(r16)
  801b1c:	8080030b 	ldhu	r2,12(r16)
  801b20:	81001704 	addi	r4,r16,92
  801b24:	000b883a 	mov	r5,zero
  801b28:	10bff7cc 	andi	r2,r2,65503
  801b2c:	8080030d 	sth	r2,12(r16)
  801b30:	01800204 	movi	r6,8
  801b34:	0802a600 	call	802a60 <memset>
  801b38:	0027883a 	mov	r19,zero
  801b3c:	003f7c06 	br	801930 <__alt_data_end+0xff801930>
  801b40:	80c00117 	ldw	r3,4(r16)
  801b44:	80800c17 	ldw	r2,48(r16)
  801b48:	98e7c83a 	sub	r19,r19,r3
  801b4c:	10003b26 	beq	r2,zero,801c3c <_fseeko_r+0x388>
  801b50:	80c00f17 	ldw	r3,60(r16)
  801b54:	80800417 	ldw	r2,16(r16)
  801b58:	98e7c83a 	sub	r19,r19,r3
  801b5c:	003fbc06 	br	801a50 <__alt_data_end+0xff801a50>
  801b60:	8140038f 	ldh	r5,14(r16)
  801b64:	8809883a 	mov	r4,r17
  801b68:	d80d883a 	mov	r6,sp
  801b6c:	0801d1c0 	call	801d1c <_fstat_r>
  801b70:	103f891e 	bne	r2,zero,801998 <__alt_data_end+0xff801998>
  801b74:	dd800417 	ldw	r22,16(sp)
  801b78:	adad883a 	add	r22,r21,r22
  801b7c:	b83fc926 	beq	r23,zero,801aa4 <__alt_data_end+0xff801aa4>
  801b80:	81400c17 	ldw	r5,48(r16)
  801b84:	81800117 	ldw	r6,4(r16)
  801b88:	28005026 	beq	r5,zero,801ccc <_fseeko_r+0x418>
  801b8c:	81c00f17 	ldw	r7,60(r16)
  801b90:	003fce06 	br	801acc <__alt_data_end+0xff801acc>
  801b94:	84c01317 	ldw	r19,76(r16)
  801b98:	81400717 	ldw	r5,28(r16)
  801b9c:	8809883a 	mov	r4,r17
  801ba0:	04e7c83a 	sub	r19,zero,r19
  801ba4:	b4e6703a 	and	r19,r22,r19
  801ba8:	980d883a 	mov	r6,r19
  801bac:	000f883a 	mov	r7,zero
  801bb0:	a03ee83a 	callr	r20
  801bb4:	00ffffc4 	movi	r3,-1
  801bb8:	10ff7726 	beq	r2,r3,801998 <__alt_data_end+0xff801998>
  801bbc:	80800417 	ldw	r2,16(r16)
  801bc0:	81400c17 	ldw	r5,48(r16)
  801bc4:	80000115 	stw	zero,4(r16)
  801bc8:	80800015 	stw	r2,0(r16)
  801bcc:	28000526 	beq	r5,zero,801be4 <_fseeko_r+0x330>
  801bd0:	80801004 	addi	r2,r16,64
  801bd4:	28800226 	beq	r5,r2,801be0 <_fseeko_r+0x32c>
  801bd8:	8809883a 	mov	r4,r17
  801bdc:	080159c0 	call	80159c <_free_r>
  801be0:	80000c15 	stw	zero,48(r16)
  801be4:	8080030b 	ldhu	r2,12(r16)
  801be8:	b4e7c83a 	sub	r19,r22,r19
  801bec:	10bff7cc 	andi	r2,r2,65503
  801bf0:	8080030d 	sth	r2,12(r16)
  801bf4:	98000b26 	beq	r19,zero,801c24 <_fseeko_r+0x370>
  801bf8:	8809883a 	mov	r4,r17
  801bfc:	800b883a 	mov	r5,r16
  801c00:	0802d400 	call	802d40 <__srefill_r>
  801c04:	103f641e 	bne	r2,zero,801998 <__alt_data_end+0xff801998>
  801c08:	80800117 	ldw	r2,4(r16)
  801c0c:	14ff6236 	bltu	r2,r19,801998 <__alt_data_end+0xff801998>
  801c10:	80c00017 	ldw	r3,0(r16)
  801c14:	14c5c83a 	sub	r2,r2,r19
  801c18:	80800115 	stw	r2,4(r16)
  801c1c:	1ce7883a 	add	r19,r3,r19
  801c20:	84c00015 	stw	r19,0(r16)
  801c24:	81001704 	addi	r4,r16,92
  801c28:	000b883a 	mov	r5,zero
  801c2c:	01800204 	movi	r6,8
  801c30:	0802a600 	call	802a60 <memset>
  801c34:	0027883a 	mov	r19,zero
  801c38:	003f3d06 	br	801930 <__alt_data_end+0xff801930>
  801c3c:	80800417 	ldw	r2,16(r16)
  801c40:	003f8306 	br	801a50 <__alt_data_end+0xff801a50>
  801c44:	81400717 	ldw	r5,28(r16)
  801c48:	8809883a 	mov	r4,r17
  801c4c:	000d883a 	mov	r6,zero
  801c50:	900f883a 	mov	r7,r18
  801c54:	a03ee83a 	callr	r20
  801c58:	1027883a 	mov	r19,r2
  801c5c:	00bfffc4 	movi	r2,-1
  801c60:	98bf3226 	beq	r19,r2,80192c <__alt_data_end+0xff80192c>
  801c64:	8080030b 	ldhu	r2,12(r16)
  801c68:	003f7006 	br	801a2c <__alt_data_end+0xff801a2c>
  801c6c:	8140038f 	ldh	r5,14(r16)
  801c70:	283f4716 	blt	r5,zero,801990 <__alt_data_end+0xff801990>
  801c74:	8809883a 	mov	r4,r17
  801c78:	d80d883a 	mov	r6,sp
  801c7c:	0801d1c0 	call	801d1c <_fstat_r>
  801c80:	1000041e 	bne	r2,zero,801c94 <_fseeko_r+0x3e0>
  801c84:	d8800117 	ldw	r2,4(sp)
  801c88:	00e00014 	movui	r3,32768
  801c8c:	10bc000c 	andi	r2,r2,61440
  801c90:	10ff7c26 	beq	r2,r3,801a84 <__alt_data_end+0xff801a84>
  801c94:	8080030b 	ldhu	r2,12(r16)
  801c98:	003f3d06 	br	801990 <__alt_data_end+0xff801990>
  801c9c:	8809883a 	mov	r4,r17
  801ca0:	800b883a 	mov	r5,r16
  801ca4:	08021000 	call	802100 <__smakebuf_r>
  801ca8:	003f3106 	br	801970 <__alt_data_end+0xff801970>
  801cac:	81400717 	ldw	r5,28(r16)
  801cb0:	8809883a 	mov	r4,r17
  801cb4:	000d883a 	mov	r6,zero
  801cb8:	01c00044 	movi	r7,1
  801cbc:	a03ee83a 	callr	r20
  801cc0:	00ffffc4 	movi	r3,-1
  801cc4:	10ff7b1e 	bne	r2,r3,801ab4 <__alt_data_end+0xff801ab4>
  801cc8:	003f3306 	br	801998 <__alt_data_end+0xff801998>
  801ccc:	80c00017 	ldw	r3,0(r16)
  801cd0:	80800417 	ldw	r2,16(r16)
  801cd4:	000b883a 	mov	r5,zero
  801cd8:	1887c83a 	sub	r3,r3,r2
  801cdc:	98e7c83a 	sub	r19,r19,r3
  801ce0:	30c7883a 	add	r3,r6,r3
  801ce4:	003f7f06 	br	801ae4 <__alt_data_end+0xff801ae4>
  801ce8:	00800744 	movi	r2,29
  801cec:	88800015 	stw	r2,0(r17)
  801cf0:	04ffffc4 	movi	r19,-1
  801cf4:	003f0e06 	br	801930 <__alt_data_end+0xff801930>

00801cf8 <fseeko>:
  801cf8:	2007883a 	mov	r3,r4
  801cfc:	010020b4 	movhi	r4,130
  801d00:	2136e204 	addi	r4,r4,-9336
  801d04:	21000017 	ldw	r4,0(r4)
  801d08:	2805883a 	mov	r2,r5
  801d0c:	300f883a 	mov	r7,r6
  801d10:	180b883a 	mov	r5,r3
  801d14:	100d883a 	mov	r6,r2
  801d18:	08018b41 	jmpi	8018b4 <_fseeko_r>

00801d1c <_fstat_r>:
  801d1c:	defffd04 	addi	sp,sp,-12
  801d20:	dc000015 	stw	r16,0(sp)
  801d24:	040020b4 	movhi	r16,130
  801d28:	dc400115 	stw	r17,4(sp)
  801d2c:	843e4d04 	addi	r16,r16,-1740
  801d30:	2023883a 	mov	r17,r4
  801d34:	2809883a 	mov	r4,r5
  801d38:	300b883a 	mov	r5,r6
  801d3c:	dfc00215 	stw	ra,8(sp)
  801d40:	80000015 	stw	zero,0(r16)
  801d44:	08174140 	call	817414 <fstat>
  801d48:	00ffffc4 	movi	r3,-1
  801d4c:	10c00526 	beq	r2,r3,801d64 <_fstat_r+0x48>
  801d50:	dfc00217 	ldw	ra,8(sp)
  801d54:	dc400117 	ldw	r17,4(sp)
  801d58:	dc000017 	ldw	r16,0(sp)
  801d5c:	dec00304 	addi	sp,sp,12
  801d60:	f800283a 	ret
  801d64:	80c00017 	ldw	r3,0(r16)
  801d68:	183ff926 	beq	r3,zero,801d50 <__alt_data_end+0xff801d50>
  801d6c:	88c00015 	stw	r3,0(r17)
  801d70:	003ff706 	br	801d50 <__alt_data_end+0xff801d50>

00801d74 <_fwalk>:
  801d74:	defff704 	addi	sp,sp,-36
  801d78:	dd000415 	stw	r20,16(sp)
  801d7c:	dfc00815 	stw	ra,32(sp)
  801d80:	ddc00715 	stw	r23,28(sp)
  801d84:	dd800615 	stw	r22,24(sp)
  801d88:	dd400515 	stw	r21,20(sp)
  801d8c:	dcc00315 	stw	r19,12(sp)
  801d90:	dc800215 	stw	r18,8(sp)
  801d94:	dc400115 	stw	r17,4(sp)
  801d98:	dc000015 	stw	r16,0(sp)
  801d9c:	2500b804 	addi	r20,r4,736
  801da0:	a0002326 	beq	r20,zero,801e30 <_fwalk+0xbc>
  801da4:	282b883a 	mov	r21,r5
  801da8:	002f883a 	mov	r23,zero
  801dac:	05800044 	movi	r22,1
  801db0:	04ffffc4 	movi	r19,-1
  801db4:	a4400117 	ldw	r17,4(r20)
  801db8:	a4800217 	ldw	r18,8(r20)
  801dbc:	8c7fffc4 	addi	r17,r17,-1
  801dc0:	88000d16 	blt	r17,zero,801df8 <_fwalk+0x84>
  801dc4:	94000304 	addi	r16,r18,12
  801dc8:	94800384 	addi	r18,r18,14
  801dcc:	80c0000b 	ldhu	r3,0(r16)
  801dd0:	8c7fffc4 	addi	r17,r17,-1
  801dd4:	813ffd04 	addi	r4,r16,-12
  801dd8:	b0c0042e 	bgeu	r22,r3,801dec <_fwalk+0x78>
  801ddc:	90c0000f 	ldh	r3,0(r18)
  801de0:	1cc00226 	beq	r3,r19,801dec <_fwalk+0x78>
  801de4:	a83ee83a 	callr	r21
  801de8:	b8aeb03a 	or	r23,r23,r2
  801dec:	84001a04 	addi	r16,r16,104
  801df0:	94801a04 	addi	r18,r18,104
  801df4:	8cfff51e 	bne	r17,r19,801dcc <__alt_data_end+0xff801dcc>
  801df8:	a5000017 	ldw	r20,0(r20)
  801dfc:	a03fed1e 	bne	r20,zero,801db4 <__alt_data_end+0xff801db4>
  801e00:	b805883a 	mov	r2,r23
  801e04:	dfc00817 	ldw	ra,32(sp)
  801e08:	ddc00717 	ldw	r23,28(sp)
  801e0c:	dd800617 	ldw	r22,24(sp)
  801e10:	dd400517 	ldw	r21,20(sp)
  801e14:	dd000417 	ldw	r20,16(sp)
  801e18:	dcc00317 	ldw	r19,12(sp)
  801e1c:	dc800217 	ldw	r18,8(sp)
  801e20:	dc400117 	ldw	r17,4(sp)
  801e24:	dc000017 	ldw	r16,0(sp)
  801e28:	dec00904 	addi	sp,sp,36
  801e2c:	f800283a 	ret
  801e30:	002f883a 	mov	r23,zero
  801e34:	003ff206 	br	801e00 <__alt_data_end+0xff801e00>

00801e38 <_fwalk_reent>:
  801e38:	defff704 	addi	sp,sp,-36
  801e3c:	dd400515 	stw	r21,20(sp)
  801e40:	dfc00815 	stw	ra,32(sp)
  801e44:	ddc00715 	stw	r23,28(sp)
  801e48:	dd800615 	stw	r22,24(sp)
  801e4c:	dd000415 	stw	r20,16(sp)
  801e50:	dcc00315 	stw	r19,12(sp)
  801e54:	dc800215 	stw	r18,8(sp)
  801e58:	dc400115 	stw	r17,4(sp)
  801e5c:	dc000015 	stw	r16,0(sp)
  801e60:	2540b804 	addi	r21,r4,736
  801e64:	a8002326 	beq	r21,zero,801ef4 <_fwalk_reent+0xbc>
  801e68:	2829883a 	mov	r20,r5
  801e6c:	202d883a 	mov	r22,r4
  801e70:	002f883a 	mov	r23,zero
  801e74:	04c00044 	movi	r19,1
  801e78:	04bfffc4 	movi	r18,-1
  801e7c:	ac400117 	ldw	r17,4(r21)
  801e80:	ac000217 	ldw	r16,8(r21)
  801e84:	8c7fffc4 	addi	r17,r17,-1
  801e88:	88000c16 	blt	r17,zero,801ebc <_fwalk_reent+0x84>
  801e8c:	84000304 	addi	r16,r16,12
  801e90:	80c0000b 	ldhu	r3,0(r16)
  801e94:	8c7fffc4 	addi	r17,r17,-1
  801e98:	817ffd04 	addi	r5,r16,-12
  801e9c:	98c0052e 	bgeu	r19,r3,801eb4 <_fwalk_reent+0x7c>
  801ea0:	80c0008f 	ldh	r3,2(r16)
  801ea4:	b009883a 	mov	r4,r22
  801ea8:	1c800226 	beq	r3,r18,801eb4 <_fwalk_reent+0x7c>
  801eac:	a03ee83a 	callr	r20
  801eb0:	b8aeb03a 	or	r23,r23,r2
  801eb4:	84001a04 	addi	r16,r16,104
  801eb8:	8cbff51e 	bne	r17,r18,801e90 <__alt_data_end+0xff801e90>
  801ebc:	ad400017 	ldw	r21,0(r21)
  801ec0:	a83fee1e 	bne	r21,zero,801e7c <__alt_data_end+0xff801e7c>
  801ec4:	b805883a 	mov	r2,r23
  801ec8:	dfc00817 	ldw	ra,32(sp)
  801ecc:	ddc00717 	ldw	r23,28(sp)
  801ed0:	dd800617 	ldw	r22,24(sp)
  801ed4:	dd400517 	ldw	r21,20(sp)
  801ed8:	dd000417 	ldw	r20,16(sp)
  801edc:	dcc00317 	ldw	r19,12(sp)
  801ee0:	dc800217 	ldw	r18,8(sp)
  801ee4:	dc400117 	ldw	r17,4(sp)
  801ee8:	dc000017 	ldw	r16,0(sp)
  801eec:	dec00904 	addi	sp,sp,36
  801ef0:	f800283a 	ret
  801ef4:	002f883a 	mov	r23,zero
  801ef8:	003ff206 	br	801ec4 <__alt_data_end+0xff801ec4>

00801efc <_fwrite_r>:
  801efc:	defff504 	addi	sp,sp,-44
  801f00:	dcc00815 	stw	r19,32(sp)
  801f04:	39a7383a 	mul	r19,r7,r6
  801f08:	d8800304 	addi	r2,sp,12
  801f0c:	d8800015 	stw	r2,0(sp)
  801f10:	00800044 	movi	r2,1
  801f14:	dd000915 	stw	r20,36(sp)
  801f18:	dc800715 	stw	r18,28(sp)
  801f1c:	dc400615 	stw	r17,24(sp)
  801f20:	d9400315 	stw	r5,12(sp)
  801f24:	dfc00a15 	stw	ra,40(sp)
  801f28:	dcc00415 	stw	r19,16(sp)
  801f2c:	dcc00215 	stw	r19,8(sp)
  801f30:	d8800115 	stw	r2,4(sp)
  801f34:	3029883a 	mov	r20,r6
  801f38:	3823883a 	mov	r17,r7
  801f3c:	2025883a 	mov	r18,r4
  801f40:	d9400b17 	ldw	r5,44(sp)
  801f44:	20000226 	beq	r4,zero,801f50 <_fwrite_r+0x54>
  801f48:	20800e17 	ldw	r2,56(r4)
  801f4c:	10001a26 	beq	r2,zero,801fb8 <_fwrite_r+0xbc>
  801f50:	2880030b 	ldhu	r2,12(r5)
  801f54:	10c8000c 	andi	r3,r2,8192
  801f58:	1800061e 	bne	r3,zero,801f74 <_fwrite_r+0x78>
  801f5c:	29001917 	ldw	r4,100(r5)
  801f60:	00f7ffc4 	movi	r3,-8193
  801f64:	10880014 	ori	r2,r2,8192
  801f68:	20c6703a 	and	r3,r4,r3
  801f6c:	2880030d 	sth	r2,12(r5)
  801f70:	28c01915 	stw	r3,100(r5)
  801f74:	9009883a 	mov	r4,r18
  801f78:	d80d883a 	mov	r6,sp
  801f7c:	08085b80 	call	8085b8 <__sfvwrite_r>
  801f80:	10000b26 	beq	r2,zero,801fb0 <_fwrite_r+0xb4>
  801f84:	d9000217 	ldw	r4,8(sp)
  801f88:	a00b883a 	mov	r5,r20
  801f8c:	9909c83a 	sub	r4,r19,r4
  801f90:	08148ec0 	call	8148ec <__udivsi3>
  801f94:	dfc00a17 	ldw	ra,40(sp)
  801f98:	dd000917 	ldw	r20,36(sp)
  801f9c:	dcc00817 	ldw	r19,32(sp)
  801fa0:	dc800717 	ldw	r18,28(sp)
  801fa4:	dc400617 	ldw	r17,24(sp)
  801fa8:	dec00b04 	addi	sp,sp,44
  801fac:	f800283a 	ret
  801fb0:	8805883a 	mov	r2,r17
  801fb4:	003ff706 	br	801f94 <__alt_data_end+0xff801f94>
  801fb8:	d9400515 	stw	r5,20(sp)
  801fbc:	08012d00 	call	8012d0 <__sinit>
  801fc0:	d9400517 	ldw	r5,20(sp)
  801fc4:	003fe206 	br	801f50 <__alt_data_end+0xff801f50>

00801fc8 <fwrite>:
  801fc8:	008020b4 	movhi	r2,130
  801fcc:	10b6e204 	addi	r2,r2,-9336
  801fd0:	2011883a 	mov	r8,r4
  801fd4:	11000017 	ldw	r4,0(r2)
  801fd8:	defffe04 	addi	sp,sp,-8
  801fdc:	2807883a 	mov	r3,r5
  801fe0:	3005883a 	mov	r2,r6
  801fe4:	d9c00015 	stw	r7,0(sp)
  801fe8:	400b883a 	mov	r5,r8
  801fec:	180d883a 	mov	r6,r3
  801ff0:	100f883a 	mov	r7,r2
  801ff4:	dfc00115 	stw	ra,4(sp)
  801ff8:	0801efc0 	call	801efc <_fwrite_r>
  801ffc:	dfc00117 	ldw	ra,4(sp)
  802000:	dec00204 	addi	sp,sp,8
  802004:	f800283a 	ret

00802008 <_getc_r>:
  802008:	defffd04 	addi	sp,sp,-12
  80200c:	dc000115 	stw	r16,4(sp)
  802010:	dfc00215 	stw	ra,8(sp)
  802014:	2021883a 	mov	r16,r4
  802018:	20000226 	beq	r4,zero,802024 <_getc_r+0x1c>
  80201c:	20800e17 	ldw	r2,56(r4)
  802020:	10000c26 	beq	r2,zero,802054 <_getc_r+0x4c>
  802024:	28800117 	ldw	r2,4(r5)
  802028:	10bfffc4 	addi	r2,r2,-1
  80202c:	28800115 	stw	r2,4(r5)
  802030:	10000c16 	blt	r2,zero,802064 <_getc_r+0x5c>
  802034:	28800017 	ldw	r2,0(r5)
  802038:	10c00044 	addi	r3,r2,1
  80203c:	28c00015 	stw	r3,0(r5)
  802040:	10800003 	ldbu	r2,0(r2)
  802044:	dfc00217 	ldw	ra,8(sp)
  802048:	dc000117 	ldw	r16,4(sp)
  80204c:	dec00304 	addi	sp,sp,12
  802050:	f800283a 	ret
  802054:	d9400015 	stw	r5,0(sp)
  802058:	08012d00 	call	8012d0 <__sinit>
  80205c:	d9400017 	ldw	r5,0(sp)
  802060:	003ff006 	br	802024 <__alt_data_end+0xff802024>
  802064:	8009883a 	mov	r4,r16
  802068:	dfc00217 	ldw	ra,8(sp)
  80206c:	dc000117 	ldw	r16,4(sp)
  802070:	dec00304 	addi	sp,sp,12
  802074:	0802f141 	jmpi	802f14 <__srget_r>

00802078 <getc>:
  802078:	008020b4 	movhi	r2,130
  80207c:	defffd04 	addi	sp,sp,-12
  802080:	10b6e204 	addi	r2,r2,-9336
  802084:	dc400115 	stw	r17,4(sp)
  802088:	14400017 	ldw	r17,0(r2)
  80208c:	dc000015 	stw	r16,0(sp)
  802090:	dfc00215 	stw	ra,8(sp)
  802094:	2021883a 	mov	r16,r4
  802098:	88000226 	beq	r17,zero,8020a4 <getc+0x2c>
  80209c:	88800e17 	ldw	r2,56(r17)
  8020a0:	10000d26 	beq	r2,zero,8020d8 <getc+0x60>
  8020a4:	80800117 	ldw	r2,4(r16)
  8020a8:	10bfffc4 	addi	r2,r2,-1
  8020ac:	80800115 	stw	r2,4(r16)
  8020b0:	10000c16 	blt	r2,zero,8020e4 <getc+0x6c>
  8020b4:	80800017 	ldw	r2,0(r16)
  8020b8:	10c00044 	addi	r3,r2,1
  8020bc:	80c00015 	stw	r3,0(r16)
  8020c0:	10800003 	ldbu	r2,0(r2)
  8020c4:	dfc00217 	ldw	ra,8(sp)
  8020c8:	dc400117 	ldw	r17,4(sp)
  8020cc:	dc000017 	ldw	r16,0(sp)
  8020d0:	dec00304 	addi	sp,sp,12
  8020d4:	f800283a 	ret
  8020d8:	8809883a 	mov	r4,r17
  8020dc:	08012d00 	call	8012d0 <__sinit>
  8020e0:	003ff006 	br	8020a4 <__alt_data_end+0xff8020a4>
  8020e4:	8809883a 	mov	r4,r17
  8020e8:	800b883a 	mov	r5,r16
  8020ec:	dfc00217 	ldw	ra,8(sp)
  8020f0:	dc400117 	ldw	r17,4(sp)
  8020f4:	dc000017 	ldw	r16,0(sp)
  8020f8:	dec00304 	addi	sp,sp,12
  8020fc:	0802f141 	jmpi	802f14 <__srget_r>

00802100 <__smakebuf_r>:
  802100:	2880030b 	ldhu	r2,12(r5)
  802104:	10c0008c 	andi	r3,r2,2
  802108:	1800401e 	bne	r3,zero,80220c <__smakebuf_r+0x10c>
  80210c:	deffec04 	addi	sp,sp,-80
  802110:	dc000f15 	stw	r16,60(sp)
  802114:	2821883a 	mov	r16,r5
  802118:	2940038f 	ldh	r5,14(r5)
  80211c:	dc401015 	stw	r17,64(sp)
  802120:	dfc01315 	stw	ra,76(sp)
  802124:	dcc01215 	stw	r19,72(sp)
  802128:	dc801115 	stw	r18,68(sp)
  80212c:	2023883a 	mov	r17,r4
  802130:	28001b16 	blt	r5,zero,8021a0 <__smakebuf_r+0xa0>
  802134:	d80d883a 	mov	r6,sp
  802138:	0801d1c0 	call	801d1c <_fstat_r>
  80213c:	10001716 	blt	r2,zero,80219c <__smakebuf_r+0x9c>
  802140:	d8800117 	ldw	r2,4(sp)
  802144:	00e00014 	movui	r3,32768
  802148:	10bc000c 	andi	r2,r2,61440
  80214c:	10c03726 	beq	r2,r3,80222c <__smakebuf_r+0x12c>
  802150:	80c0030b 	ldhu	r3,12(r16)
  802154:	18c20014 	ori	r3,r3,2048
  802158:	80c0030d 	sth	r3,12(r16)
  80215c:	00c80004 	movi	r3,8192
  802160:	10c03c1e 	bne	r2,r3,802254 <__smakebuf_r+0x154>
  802164:	8140038f 	ldh	r5,14(r16)
  802168:	8809883a 	mov	r4,r17
  80216c:	0808a780 	call	808a78 <_isatty_r>
  802170:	10004e26 	beq	r2,zero,8022ac <__smakebuf_r+0x1ac>
  802174:	8080030b 	ldhu	r2,12(r16)
  802178:	04c00044 	movi	r19,1
  80217c:	80c010c4 	addi	r3,r16,67
  802180:	14c4b03a 	or	r2,r2,r19
  802184:	8080030d 	sth	r2,12(r16)
  802188:	80c00015 	stw	r3,0(r16)
  80218c:	80c00415 	stw	r3,16(r16)
  802190:	84c00515 	stw	r19,20(r16)
  802194:	04810004 	movi	r18,1024
  802198:	00000706 	br	8021b8 <__smakebuf_r+0xb8>
  80219c:	8080030b 	ldhu	r2,12(r16)
  8021a0:	10c0200c 	andi	r3,r2,128
  8021a4:	18001f1e 	bne	r3,zero,802224 <__smakebuf_r+0x124>
  8021a8:	04810004 	movi	r18,1024
  8021ac:	10820014 	ori	r2,r2,2048
  8021b0:	8080030d 	sth	r2,12(r16)
  8021b4:	0027883a 	mov	r19,zero
  8021b8:	8809883a 	mov	r4,r17
  8021bc:	900b883a 	mov	r5,r18
  8021c0:	08022b80 	call	8022b8 <_malloc_r>
  8021c4:	10002e26 	beq	r2,zero,802280 <__smakebuf_r+0x180>
  8021c8:	80c0030b 	ldhu	r3,12(r16)
  8021cc:	01002034 	movhi	r4,128
  8021d0:	2103e404 	addi	r4,r4,3984
  8021d4:	89000f15 	stw	r4,60(r17)
  8021d8:	18c02014 	ori	r3,r3,128
  8021dc:	80c0030d 	sth	r3,12(r16)
  8021e0:	80800015 	stw	r2,0(r16)
  8021e4:	80800415 	stw	r2,16(r16)
  8021e8:	84800515 	stw	r18,20(r16)
  8021ec:	98001c1e 	bne	r19,zero,802260 <__smakebuf_r+0x160>
  8021f0:	dfc01317 	ldw	ra,76(sp)
  8021f4:	dcc01217 	ldw	r19,72(sp)
  8021f8:	dc801117 	ldw	r18,68(sp)
  8021fc:	dc401017 	ldw	r17,64(sp)
  802200:	dc000f17 	ldw	r16,60(sp)
  802204:	dec01404 	addi	sp,sp,80
  802208:	f800283a 	ret
  80220c:	288010c4 	addi	r2,r5,67
  802210:	28800015 	stw	r2,0(r5)
  802214:	28800415 	stw	r2,16(r5)
  802218:	00800044 	movi	r2,1
  80221c:	28800515 	stw	r2,20(r5)
  802220:	f800283a 	ret
  802224:	04801004 	movi	r18,64
  802228:	003fe006 	br	8021ac <__alt_data_end+0xff8021ac>
  80222c:	81000a17 	ldw	r4,40(r16)
  802230:	00c02034 	movhi	r3,128
  802234:	18cc6f04 	addi	r3,r3,12732
  802238:	20ffc51e 	bne	r4,r3,802150 <__alt_data_end+0xff802150>
  80223c:	80c0030b 	ldhu	r3,12(r16)
  802240:	01010004 	movi	r4,1024
  802244:	81001315 	stw	r4,76(r16)
  802248:	1906b03a 	or	r3,r3,r4
  80224c:	80c0030d 	sth	r3,12(r16)
  802250:	003fc206 	br	80215c <__alt_data_end+0xff80215c>
  802254:	0027883a 	mov	r19,zero
  802258:	04810004 	movi	r18,1024
  80225c:	003fd606 	br	8021b8 <__alt_data_end+0xff8021b8>
  802260:	8140038f 	ldh	r5,14(r16)
  802264:	8809883a 	mov	r4,r17
  802268:	0808a780 	call	808a78 <_isatty_r>
  80226c:	103fe026 	beq	r2,zero,8021f0 <__alt_data_end+0xff8021f0>
  802270:	8080030b 	ldhu	r2,12(r16)
  802274:	10800054 	ori	r2,r2,1
  802278:	8080030d 	sth	r2,12(r16)
  80227c:	003fdc06 	br	8021f0 <__alt_data_end+0xff8021f0>
  802280:	8080030b 	ldhu	r2,12(r16)
  802284:	10c0800c 	andi	r3,r2,512
  802288:	183fd91e 	bne	r3,zero,8021f0 <__alt_data_end+0xff8021f0>
  80228c:	10800094 	ori	r2,r2,2
  802290:	80c010c4 	addi	r3,r16,67
  802294:	8080030d 	sth	r2,12(r16)
  802298:	00800044 	movi	r2,1
  80229c:	80c00015 	stw	r3,0(r16)
  8022a0:	80c00415 	stw	r3,16(r16)
  8022a4:	80800515 	stw	r2,20(r16)
  8022a8:	003fd106 	br	8021f0 <__alt_data_end+0xff8021f0>
  8022ac:	04c00044 	movi	r19,1
  8022b0:	04810004 	movi	r18,1024
  8022b4:	003fc006 	br	8021b8 <__alt_data_end+0xff8021b8>

008022b8 <_malloc_r>:
  8022b8:	defff504 	addi	sp,sp,-44
  8022bc:	dc800315 	stw	r18,12(sp)
  8022c0:	dfc00a15 	stw	ra,40(sp)
  8022c4:	df000915 	stw	fp,36(sp)
  8022c8:	ddc00815 	stw	r23,32(sp)
  8022cc:	dd800715 	stw	r22,28(sp)
  8022d0:	dd400615 	stw	r21,24(sp)
  8022d4:	dd000515 	stw	r20,20(sp)
  8022d8:	dcc00415 	stw	r19,16(sp)
  8022dc:	dc400215 	stw	r17,8(sp)
  8022e0:	dc000115 	stw	r16,4(sp)
  8022e4:	288002c4 	addi	r2,r5,11
  8022e8:	00c00584 	movi	r3,22
  8022ec:	2025883a 	mov	r18,r4
  8022f0:	18802a2e 	bgeu	r3,r2,80239c <_malloc_r+0xe4>
  8022f4:	047ffe04 	movi	r17,-8
  8022f8:	1462703a 	and	r17,r2,r17
  8022fc:	88009e16 	blt	r17,zero,802578 <_malloc_r+0x2c0>
  802300:	89409d36 	bltu	r17,r5,802578 <_malloc_r+0x2c0>
  802304:	08178380 	call	817838 <__malloc_lock>
  802308:	00807dc4 	movi	r2,503
  80230c:	14402736 	bltu	r2,r17,8023ac <_malloc_r+0xf4>
  802310:	8806d0fa 	srli	r3,r17,3
  802314:	04c020b4 	movhi	r19,130
  802318:	9cf0ae04 	addi	r19,r19,-15688
  80231c:	18c5883a 	add	r2,r3,r3
  802320:	1085883a 	add	r2,r2,r2
  802324:	1085883a 	add	r2,r2,r2
  802328:	9885883a 	add	r2,r19,r2
  80232c:	14000317 	ldw	r16,12(r2)
  802330:	80814a26 	beq	r16,r2,80285c <_malloc_r+0x5a4>
  802334:	80c00117 	ldw	r3,4(r16)
  802338:	81000317 	ldw	r4,12(r16)
  80233c:	00bfff04 	movi	r2,-4
  802340:	1884703a 	and	r2,r3,r2
  802344:	81400217 	ldw	r5,8(r16)
  802348:	8085883a 	add	r2,r16,r2
  80234c:	10c00117 	ldw	r3,4(r2)
  802350:	29000315 	stw	r4,12(r5)
  802354:	21400215 	stw	r5,8(r4)
  802358:	18c00054 	ori	r3,r3,1
  80235c:	10c00115 	stw	r3,4(r2)
  802360:	9009883a 	mov	r4,r18
  802364:	08178580 	call	817858 <__malloc_unlock>
  802368:	80800204 	addi	r2,r16,8
  80236c:	dfc00a17 	ldw	ra,40(sp)
  802370:	df000917 	ldw	fp,36(sp)
  802374:	ddc00817 	ldw	r23,32(sp)
  802378:	dd800717 	ldw	r22,28(sp)
  80237c:	dd400617 	ldw	r21,24(sp)
  802380:	dd000517 	ldw	r20,20(sp)
  802384:	dcc00417 	ldw	r19,16(sp)
  802388:	dc800317 	ldw	r18,12(sp)
  80238c:	dc400217 	ldw	r17,8(sp)
  802390:	dc000117 	ldw	r16,4(sp)
  802394:	dec00b04 	addi	sp,sp,44
  802398:	f800283a 	ret
  80239c:	04400404 	movi	r17,16
  8023a0:	89407536 	bltu	r17,r5,802578 <_malloc_r+0x2c0>
  8023a4:	08178380 	call	817838 <__malloc_lock>
  8023a8:	003fd906 	br	802310 <__alt_data_end+0xff802310>
  8023ac:	8806d27a 	srli	r3,r17,9
  8023b0:	18007526 	beq	r3,zero,802588 <_malloc_r+0x2d0>
  8023b4:	00800104 	movi	r2,4
  8023b8:	10c0ef36 	bltu	r2,r3,802778 <_malloc_r+0x4c0>
  8023bc:	8806d1ba 	srli	r3,r17,6
  8023c0:	19c00e04 	addi	r7,r3,56
  8023c4:	39cb883a 	add	r5,r7,r7
  8023c8:	04c020b4 	movhi	r19,130
  8023cc:	294b883a 	add	r5,r5,r5
  8023d0:	9cf0ae04 	addi	r19,r19,-15688
  8023d4:	294b883a 	add	r5,r5,r5
  8023d8:	994b883a 	add	r5,r19,r5
  8023dc:	2c000317 	ldw	r16,12(r5)
  8023e0:	2c000e26 	beq	r5,r16,80241c <_malloc_r+0x164>
  8023e4:	80800117 	ldw	r2,4(r16)
  8023e8:	01bfff04 	movi	r6,-4
  8023ec:	010003c4 	movi	r4,15
  8023f0:	1184703a 	and	r2,r2,r6
  8023f4:	1447c83a 	sub	r3,r2,r17
  8023f8:	20c00716 	blt	r4,r3,802418 <_malloc_r+0x160>
  8023fc:	1800650e 	bge	r3,zero,802594 <_malloc_r+0x2dc>
  802400:	84000317 	ldw	r16,12(r16)
  802404:	2c000526 	beq	r5,r16,80241c <_malloc_r+0x164>
  802408:	80800117 	ldw	r2,4(r16)
  80240c:	1184703a 	and	r2,r2,r6
  802410:	1447c83a 	sub	r3,r2,r17
  802414:	20fff90e 	bge	r4,r3,8023fc <__alt_data_end+0xff8023fc>
  802418:	39ffffc4 	addi	r7,r7,-1
  80241c:	38c00044 	addi	r3,r7,1
  802420:	018020b4 	movhi	r6,130
  802424:	9c000417 	ldw	r16,16(r19)
  802428:	31b0ae04 	addi	r6,r6,-15688
  80242c:	32400204 	addi	r9,r6,8
  802430:	82410326 	beq	r16,r9,802840 <_malloc_r+0x588>
  802434:	81000117 	ldw	r4,4(r16)
  802438:	00bfff04 	movi	r2,-4
  80243c:	208e703a 	and	r7,r4,r2
  802440:	3c45c83a 	sub	r2,r7,r17
  802444:	010003c4 	movi	r4,15
  802448:	2080ee16 	blt	r4,r2,802804 <_malloc_r+0x54c>
  80244c:	32400515 	stw	r9,20(r6)
  802450:	32400415 	stw	r9,16(r6)
  802454:	1000510e 	bge	r2,zero,80259c <_malloc_r+0x2e4>
  802458:	00807fc4 	movi	r2,511
  80245c:	11c0ce36 	bltu	r2,r7,802798 <_malloc_r+0x4e0>
  802460:	3808d0fa 	srli	r4,r7,3
  802464:	01c00044 	movi	r7,1
  802468:	30800117 	ldw	r2,4(r6)
  80246c:	210b883a 	add	r5,r4,r4
  802470:	294b883a 	add	r5,r5,r5
  802474:	2009d0ba 	srai	r4,r4,2
  802478:	294b883a 	add	r5,r5,r5
  80247c:	298b883a 	add	r5,r5,r6
  802480:	2a000217 	ldw	r8,8(r5)
  802484:	3908983a 	sll	r4,r7,r4
  802488:	81400315 	stw	r5,12(r16)
  80248c:	82000215 	stw	r8,8(r16)
  802490:	2088b03a 	or	r4,r4,r2
  802494:	2c000215 	stw	r16,8(r5)
  802498:	31000115 	stw	r4,4(r6)
  80249c:	44000315 	stw	r16,12(r8)
  8024a0:	1805d0ba 	srai	r2,r3,2
  8024a4:	01400044 	movi	r5,1
  8024a8:	288a983a 	sll	r5,r5,r2
  8024ac:	21404336 	bltu	r4,r5,8025bc <_malloc_r+0x304>
  8024b0:	2144703a 	and	r2,r4,r5
  8024b4:	10000a1e 	bne	r2,zero,8024e0 <_malloc_r+0x228>
  8024b8:	00bfff04 	movi	r2,-4
  8024bc:	294b883a 	add	r5,r5,r5
  8024c0:	1886703a 	and	r3,r3,r2
  8024c4:	2144703a 	and	r2,r4,r5
  8024c8:	18c00104 	addi	r3,r3,4
  8024cc:	1000041e 	bne	r2,zero,8024e0 <_malloc_r+0x228>
  8024d0:	294b883a 	add	r5,r5,r5
  8024d4:	2144703a 	and	r2,r4,r5
  8024d8:	18c00104 	addi	r3,r3,4
  8024dc:	103ffc26 	beq	r2,zero,8024d0 <__alt_data_end+0xff8024d0>
  8024e0:	023fff04 	movi	r8,-4
  8024e4:	01c003c4 	movi	r7,15
  8024e8:	18c5883a 	add	r2,r3,r3
  8024ec:	1085883a 	add	r2,r2,r2
  8024f0:	1085883a 	add	r2,r2,r2
  8024f4:	9895883a 	add	r10,r19,r2
  8024f8:	52c00304 	addi	r11,r10,12
  8024fc:	1819883a 	mov	r12,r3
  802500:	5c000017 	ldw	r16,0(r11)
  802504:	59bffd04 	addi	r6,r11,-12
  802508:	8180041e 	bne	r16,r6,80251c <_malloc_r+0x264>
  80250c:	0000ce06 	br	802848 <_malloc_r+0x590>
  802510:	2000d70e 	bge	r4,zero,802870 <_malloc_r+0x5b8>
  802514:	84000317 	ldw	r16,12(r16)
  802518:	8180cb26 	beq	r16,r6,802848 <_malloc_r+0x590>
  80251c:	80800117 	ldw	r2,4(r16)
  802520:	1204703a 	and	r2,r2,r8
  802524:	1449c83a 	sub	r4,r2,r17
  802528:	393ff90e 	bge	r7,r4,802510 <__alt_data_end+0xff802510>
  80252c:	80800317 	ldw	r2,12(r16)
  802530:	80c00217 	ldw	r3,8(r16)
  802534:	89400054 	ori	r5,r17,1
  802538:	81400115 	stw	r5,4(r16)
  80253c:	18800315 	stw	r2,12(r3)
  802540:	10c00215 	stw	r3,8(r2)
  802544:	8463883a 	add	r17,r16,r17
  802548:	9c400515 	stw	r17,20(r19)
  80254c:	9c400415 	stw	r17,16(r19)
  802550:	20800054 	ori	r2,r4,1
  802554:	88800115 	stw	r2,4(r17)
  802558:	8a400315 	stw	r9,12(r17)
  80255c:	8a400215 	stw	r9,8(r17)
  802560:	8923883a 	add	r17,r17,r4
  802564:	89000015 	stw	r4,0(r17)
  802568:	9009883a 	mov	r4,r18
  80256c:	08178580 	call	817858 <__malloc_unlock>
  802570:	80800204 	addi	r2,r16,8
  802574:	003f7d06 	br	80236c <__alt_data_end+0xff80236c>
  802578:	00800304 	movi	r2,12
  80257c:	90800015 	stw	r2,0(r18)
  802580:	0005883a 	mov	r2,zero
  802584:	003f7906 	br	80236c <__alt_data_end+0xff80236c>
  802588:	01401f84 	movi	r5,126
  80258c:	01c00fc4 	movi	r7,63
  802590:	003f8d06 	br	8023c8 <__alt_data_end+0xff8023c8>
  802594:	81000317 	ldw	r4,12(r16)
  802598:	003f6a06 	br	802344 <__alt_data_end+0xff802344>
  80259c:	81c5883a 	add	r2,r16,r7
  8025a0:	10c00117 	ldw	r3,4(r2)
  8025a4:	9009883a 	mov	r4,r18
  8025a8:	18c00054 	ori	r3,r3,1
  8025ac:	10c00115 	stw	r3,4(r2)
  8025b0:	08178580 	call	817858 <__malloc_unlock>
  8025b4:	80800204 	addi	r2,r16,8
  8025b8:	003f6c06 	br	80236c <__alt_data_end+0xff80236c>
  8025bc:	9c000217 	ldw	r16,8(r19)
  8025c0:	00bfff04 	movi	r2,-4
  8025c4:	85800117 	ldw	r22,4(r16)
  8025c8:	b0ac703a 	and	r22,r22,r2
  8025cc:	b4400336 	bltu	r22,r17,8025dc <_malloc_r+0x324>
  8025d0:	b445c83a 	sub	r2,r22,r17
  8025d4:	00c003c4 	movi	r3,15
  8025d8:	18805d16 	blt	r3,r2,802750 <_malloc_r+0x498>
  8025dc:	05c020b4 	movhi	r23,130
  8025e0:	008020b4 	movhi	r2,130
  8025e4:	bdf6e304 	addi	r23,r23,-9332
  8025e8:	10be5004 	addi	r2,r2,-1728
  8025ec:	15400017 	ldw	r21,0(r2)
  8025f0:	b9000017 	ldw	r4,0(r23)
  8025f4:	00ffffc4 	movi	r3,-1
  8025f8:	858d883a 	add	r6,r16,r22
  8025fc:	8d6b883a 	add	r21,r17,r21
  802600:	20c0e426 	beq	r4,r3,802994 <_malloc_r+0x6dc>
  802604:	ad4403c4 	addi	r21,r21,4111
  802608:	00fc0004 	movi	r3,-4096
  80260c:	a8ea703a 	and	r21,r21,r3
  802610:	9009883a 	mov	r4,r18
  802614:	a80b883a 	mov	r5,r21
  802618:	d9800015 	stw	r6,0(sp)
  80261c:	0802f9c0 	call	802f9c <_sbrk_r>
  802620:	00ffffc4 	movi	r3,-1
  802624:	1029883a 	mov	r20,r2
  802628:	d9800017 	ldw	r6,0(sp)
  80262c:	10c0a426 	beq	r2,r3,8028c0 <_malloc_r+0x608>
  802630:	1180a236 	bltu	r2,r6,8028bc <_malloc_r+0x604>
  802634:	070020b4 	movhi	fp,130
  802638:	e73e5b04 	addi	fp,fp,-1684
  80263c:	e0c00017 	ldw	r3,0(fp)
  802640:	a8c7883a 	add	r3,r21,r3
  802644:	e0c00015 	stw	r3,0(fp)
  802648:	3500da26 	beq	r6,r20,8029b4 <_malloc_r+0x6fc>
  80264c:	b9000017 	ldw	r4,0(r23)
  802650:	00bfffc4 	movi	r2,-1
  802654:	2080e426 	beq	r4,r2,8029e8 <_malloc_r+0x730>
  802658:	a185c83a 	sub	r2,r20,r6
  80265c:	1885883a 	add	r2,r3,r2
  802660:	e0800015 	stw	r2,0(fp)
  802664:	a0c001cc 	andi	r3,r20,7
  802668:	1800b526 	beq	r3,zero,802940 <_malloc_r+0x688>
  80266c:	a0e9c83a 	sub	r20,r20,r3
  802670:	00840204 	movi	r2,4104
  802674:	a5000204 	addi	r20,r20,8
  802678:	10c7c83a 	sub	r3,r2,r3
  80267c:	a545883a 	add	r2,r20,r21
  802680:	1083ffcc 	andi	r2,r2,4095
  802684:	18abc83a 	sub	r21,r3,r2
  802688:	9009883a 	mov	r4,r18
  80268c:	a80b883a 	mov	r5,r21
  802690:	0802f9c0 	call	802f9c <_sbrk_r>
  802694:	00ffffc4 	movi	r3,-1
  802698:	10c0d026 	beq	r2,r3,8029dc <_malloc_r+0x724>
  80269c:	1507c83a 	sub	r3,r2,r20
  8026a0:	a8c7883a 	add	r3,r21,r3
  8026a4:	18c00054 	ori	r3,r3,1
  8026a8:	e0800017 	ldw	r2,0(fp)
  8026ac:	9d000215 	stw	r20,8(r19)
  8026b0:	a0c00115 	stw	r3,4(r20)
  8026b4:	a887883a 	add	r3,r21,r2
  8026b8:	e0c00015 	stw	r3,0(fp)
  8026bc:	84c00e26 	beq	r16,r19,8026f8 <_malloc_r+0x440>
  8026c0:	018003c4 	movi	r6,15
  8026c4:	3580a02e 	bgeu	r6,r22,802948 <_malloc_r+0x690>
  8026c8:	81400117 	ldw	r5,4(r16)
  8026cc:	013ffe04 	movi	r4,-8
  8026d0:	b0bffd04 	addi	r2,r22,-12
  8026d4:	1104703a 	and	r2,r2,r4
  8026d8:	2900004c 	andi	r4,r5,1
  8026dc:	1108b03a 	or	r4,r2,r4
  8026e0:	81000115 	stw	r4,4(r16)
  8026e4:	01400144 	movi	r5,5
  8026e8:	8089883a 	add	r4,r16,r2
  8026ec:	21400115 	stw	r5,4(r4)
  8026f0:	21400215 	stw	r5,8(r4)
  8026f4:	3080c036 	bltu	r6,r2,8029f8 <_malloc_r+0x740>
  8026f8:	008020b4 	movhi	r2,130
  8026fc:	10be4f04 	addi	r2,r2,-1732
  802700:	11000017 	ldw	r4,0(r2)
  802704:	20c0012e 	bgeu	r4,r3,80270c <_malloc_r+0x454>
  802708:	10c00015 	stw	r3,0(r2)
  80270c:	008020b4 	movhi	r2,130
  802710:	10be4e04 	addi	r2,r2,-1736
  802714:	11000017 	ldw	r4,0(r2)
  802718:	9c000217 	ldw	r16,8(r19)
  80271c:	20c0012e 	bgeu	r4,r3,802724 <_malloc_r+0x46c>
  802720:	10c00015 	stw	r3,0(r2)
  802724:	80c00117 	ldw	r3,4(r16)
  802728:	00bfff04 	movi	r2,-4
  80272c:	1886703a 	and	r3,r3,r2
  802730:	1c45c83a 	sub	r2,r3,r17
  802734:	1c400236 	bltu	r3,r17,802740 <_malloc_r+0x488>
  802738:	00c003c4 	movi	r3,15
  80273c:	18800416 	blt	r3,r2,802750 <_malloc_r+0x498>
  802740:	9009883a 	mov	r4,r18
  802744:	08178580 	call	817858 <__malloc_unlock>
  802748:	0005883a 	mov	r2,zero
  80274c:	003f0706 	br	80236c <__alt_data_end+0xff80236c>
  802750:	88c00054 	ori	r3,r17,1
  802754:	80c00115 	stw	r3,4(r16)
  802758:	8463883a 	add	r17,r16,r17
  80275c:	10800054 	ori	r2,r2,1
  802760:	9c400215 	stw	r17,8(r19)
  802764:	88800115 	stw	r2,4(r17)
  802768:	9009883a 	mov	r4,r18
  80276c:	08178580 	call	817858 <__malloc_unlock>
  802770:	80800204 	addi	r2,r16,8
  802774:	003efd06 	br	80236c <__alt_data_end+0xff80236c>
  802778:	00800504 	movi	r2,20
  80277c:	10c0482e 	bgeu	r2,r3,8028a0 <_malloc_r+0x5e8>
  802780:	00801504 	movi	r2,84
  802784:	10c06836 	bltu	r2,r3,802928 <_malloc_r+0x670>
  802788:	8806d33a 	srli	r3,r17,12
  80278c:	19c01b84 	addi	r7,r3,110
  802790:	39cb883a 	add	r5,r7,r7
  802794:	003f0c06 	br	8023c8 <__alt_data_end+0xff8023c8>
  802798:	3804d27a 	srli	r2,r7,9
  80279c:	01000104 	movi	r4,4
  8027a0:	2080422e 	bgeu	r4,r2,8028ac <_malloc_r+0x5f4>
  8027a4:	01000504 	movi	r4,20
  8027a8:	20807c36 	bltu	r4,r2,80299c <_malloc_r+0x6e4>
  8027ac:	110016c4 	addi	r4,r2,91
  8027b0:	210b883a 	add	r5,r4,r4
  8027b4:	294b883a 	add	r5,r5,r5
  8027b8:	294b883a 	add	r5,r5,r5
  8027bc:	994b883a 	add	r5,r19,r5
  8027c0:	28800217 	ldw	r2,8(r5)
  8027c4:	020020b4 	movhi	r8,130
  8027c8:	4230ae04 	addi	r8,r8,-15688
  8027cc:	11406326 	beq	r2,r5,80295c <_malloc_r+0x6a4>
  8027d0:	01bfff04 	movi	r6,-4
  8027d4:	11000117 	ldw	r4,4(r2)
  8027d8:	2188703a 	and	r4,r4,r6
  8027dc:	3900022e 	bgeu	r7,r4,8027e8 <_malloc_r+0x530>
  8027e0:	10800217 	ldw	r2,8(r2)
  8027e4:	28bffb1e 	bne	r5,r2,8027d4 <__alt_data_end+0xff8027d4>
  8027e8:	11800317 	ldw	r6,12(r2)
  8027ec:	99000117 	ldw	r4,4(r19)
  8027f0:	81800315 	stw	r6,12(r16)
  8027f4:	80800215 	stw	r2,8(r16)
  8027f8:	34000215 	stw	r16,8(r6)
  8027fc:	14000315 	stw	r16,12(r2)
  802800:	003f2706 	br	8024a0 <__alt_data_end+0xff8024a0>
  802804:	88c00054 	ori	r3,r17,1
  802808:	80c00115 	stw	r3,4(r16)
  80280c:	8463883a 	add	r17,r16,r17
  802810:	34400515 	stw	r17,20(r6)
  802814:	34400415 	stw	r17,16(r6)
  802818:	10c00054 	ori	r3,r2,1
  80281c:	8a400315 	stw	r9,12(r17)
  802820:	8a400215 	stw	r9,8(r17)
  802824:	88c00115 	stw	r3,4(r17)
  802828:	88a3883a 	add	r17,r17,r2
  80282c:	88800015 	stw	r2,0(r17)
  802830:	9009883a 	mov	r4,r18
  802834:	08178580 	call	817858 <__malloc_unlock>
  802838:	80800204 	addi	r2,r16,8
  80283c:	003ecb06 	br	80236c <__alt_data_end+0xff80236c>
  802840:	31000117 	ldw	r4,4(r6)
  802844:	003f1606 	br	8024a0 <__alt_data_end+0xff8024a0>
  802848:	63000044 	addi	r12,r12,1
  80284c:	608000cc 	andi	r2,r12,3
  802850:	5ac00204 	addi	r11,r11,8
  802854:	103f2a1e 	bne	r2,zero,802500 <__alt_data_end+0xff802500>
  802858:	00002106 	br	8028e0 <_malloc_r+0x628>
  80285c:	80800204 	addi	r2,r16,8
  802860:	84000517 	ldw	r16,20(r16)
  802864:	143eb31e 	bne	r2,r16,802334 <__alt_data_end+0xff802334>
  802868:	18c00084 	addi	r3,r3,2
  80286c:	003eec06 	br	802420 <__alt_data_end+0xff802420>
  802870:	8085883a 	add	r2,r16,r2
  802874:	10c00117 	ldw	r3,4(r2)
  802878:	81000317 	ldw	r4,12(r16)
  80287c:	81400217 	ldw	r5,8(r16)
  802880:	18c00054 	ori	r3,r3,1
  802884:	10c00115 	stw	r3,4(r2)
  802888:	29000315 	stw	r4,12(r5)
  80288c:	21400215 	stw	r5,8(r4)
  802890:	9009883a 	mov	r4,r18
  802894:	08178580 	call	817858 <__malloc_unlock>
  802898:	80800204 	addi	r2,r16,8
  80289c:	003eb306 	br	80236c <__alt_data_end+0xff80236c>
  8028a0:	19c016c4 	addi	r7,r3,91
  8028a4:	39cb883a 	add	r5,r7,r7
  8028a8:	003ec706 	br	8023c8 <__alt_data_end+0xff8023c8>
  8028ac:	3804d1ba 	srli	r2,r7,6
  8028b0:	11000e04 	addi	r4,r2,56
  8028b4:	210b883a 	add	r5,r4,r4
  8028b8:	003fbe06 	br	8027b4 <__alt_data_end+0xff8027b4>
  8028bc:	84ff5d26 	beq	r16,r19,802634 <__alt_data_end+0xff802634>
  8028c0:	9c000217 	ldw	r16,8(r19)
  8028c4:	00bfff04 	movi	r2,-4
  8028c8:	80c00117 	ldw	r3,4(r16)
  8028cc:	1886703a 	and	r3,r3,r2
  8028d0:	003f9706 	br	802730 <__alt_data_end+0xff802730>
  8028d4:	52800017 	ldw	r10,0(r10)
  8028d8:	18ffffc4 	addi	r3,r3,-1
  8028dc:	50805c1e 	bne	r10,r2,802a50 <_malloc_r+0x798>
  8028e0:	190000cc 	andi	r4,r3,3
  8028e4:	50bffe04 	addi	r2,r10,-8
  8028e8:	203ffa1e 	bne	r4,zero,8028d4 <__alt_data_end+0xff8028d4>
  8028ec:	98800117 	ldw	r2,4(r19)
  8028f0:	0146303a 	nor	r3,zero,r5
  8028f4:	1884703a 	and	r2,r3,r2
  8028f8:	98800115 	stw	r2,4(r19)
  8028fc:	294b883a 	add	r5,r5,r5
  802900:	117f2e36 	bltu	r2,r5,8025bc <__alt_data_end+0xff8025bc>
  802904:	283f2d26 	beq	r5,zero,8025bc <__alt_data_end+0xff8025bc>
  802908:	1146703a 	and	r3,r2,r5
  80290c:	1800521e 	bne	r3,zero,802a58 <_malloc_r+0x7a0>
  802910:	6007883a 	mov	r3,r12
  802914:	294b883a 	add	r5,r5,r5
  802918:	1148703a 	and	r4,r2,r5
  80291c:	18c00104 	addi	r3,r3,4
  802920:	203ffc26 	beq	r4,zero,802914 <__alt_data_end+0xff802914>
  802924:	003ef006 	br	8024e8 <__alt_data_end+0xff8024e8>
  802928:	00805504 	movi	r2,340
  80292c:	10c01336 	bltu	r2,r3,80297c <_malloc_r+0x6c4>
  802930:	8806d3fa 	srli	r3,r17,15
  802934:	19c01dc4 	addi	r7,r3,119
  802938:	39cb883a 	add	r5,r7,r7
  80293c:	003ea206 	br	8023c8 <__alt_data_end+0xff8023c8>
  802940:	00c40004 	movi	r3,4096
  802944:	003f4d06 	br	80267c <__alt_data_end+0xff80267c>
  802948:	00800044 	movi	r2,1
  80294c:	a0800115 	stw	r2,4(r20)
  802950:	a021883a 	mov	r16,r20
  802954:	0007883a 	mov	r3,zero
  802958:	003f7506 	br	802730 <__alt_data_end+0xff802730>
  80295c:	200bd0ba 	srai	r5,r4,2
  802960:	01800044 	movi	r6,1
  802964:	41000117 	ldw	r4,4(r8)
  802968:	314a983a 	sll	r5,r6,r5
  80296c:	100d883a 	mov	r6,r2
  802970:	2908b03a 	or	r4,r5,r4
  802974:	41000115 	stw	r4,4(r8)
  802978:	003f9d06 	br	8027f0 <__alt_data_end+0xff8027f0>
  80297c:	00815504 	movi	r2,1364
  802980:	10c01336 	bltu	r2,r3,8029d0 <_malloc_r+0x718>
  802984:	8806d4ba 	srli	r3,r17,18
  802988:	19c01f04 	addi	r7,r3,124
  80298c:	39cb883a 	add	r5,r7,r7
  802990:	003e8d06 	br	8023c8 <__alt_data_end+0xff8023c8>
  802994:	ad400404 	addi	r21,r21,16
  802998:	003f1d06 	br	802610 <__alt_data_end+0xff802610>
  80299c:	01001504 	movi	r4,84
  8029a0:	20801c36 	bltu	r4,r2,802a14 <_malloc_r+0x75c>
  8029a4:	3804d33a 	srli	r2,r7,12
  8029a8:	11001b84 	addi	r4,r2,110
  8029ac:	210b883a 	add	r5,r4,r4
  8029b0:	003f8006 	br	8027b4 <__alt_data_end+0xff8027b4>
  8029b4:	3083ffcc 	andi	r2,r6,4095
  8029b8:	103f241e 	bne	r2,zero,80264c <__alt_data_end+0xff80264c>
  8029bc:	99000217 	ldw	r4,8(r19)
  8029c0:	ad85883a 	add	r2,r21,r22
  8029c4:	10800054 	ori	r2,r2,1
  8029c8:	20800115 	stw	r2,4(r4)
  8029cc:	003f4a06 	br	8026f8 <__alt_data_end+0xff8026f8>
  8029d0:	01403f04 	movi	r5,252
  8029d4:	01c01f84 	movi	r7,126
  8029d8:	003e7b06 	br	8023c8 <__alt_data_end+0xff8023c8>
  8029dc:	00c00044 	movi	r3,1
  8029e0:	002b883a 	mov	r21,zero
  8029e4:	003f3006 	br	8026a8 <__alt_data_end+0xff8026a8>
  8029e8:	008020b4 	movhi	r2,130
  8029ec:	10b6e304 	addi	r2,r2,-9332
  8029f0:	15000015 	stw	r20,0(r2)
  8029f4:	003f1b06 	br	802664 <__alt_data_end+0xff802664>
  8029f8:	9009883a 	mov	r4,r18
  8029fc:	81400204 	addi	r5,r16,8
  802a00:	080159c0 	call	80159c <_free_r>
  802a04:	008020b4 	movhi	r2,130
  802a08:	10be5b04 	addi	r2,r2,-1684
  802a0c:	10c00017 	ldw	r3,0(r2)
  802a10:	003f3906 	br	8026f8 <__alt_data_end+0xff8026f8>
  802a14:	01005504 	movi	r4,340
  802a18:	20800436 	bltu	r4,r2,802a2c <_malloc_r+0x774>
  802a1c:	3804d3fa 	srli	r2,r7,15
  802a20:	11001dc4 	addi	r4,r2,119
  802a24:	210b883a 	add	r5,r4,r4
  802a28:	003f6206 	br	8027b4 <__alt_data_end+0xff8027b4>
  802a2c:	01015504 	movi	r4,1364
  802a30:	20800436 	bltu	r4,r2,802a44 <_malloc_r+0x78c>
  802a34:	3804d4ba 	srli	r2,r7,18
  802a38:	11001f04 	addi	r4,r2,124
  802a3c:	210b883a 	add	r5,r4,r4
  802a40:	003f5c06 	br	8027b4 <__alt_data_end+0xff8027b4>
  802a44:	01403f04 	movi	r5,252
  802a48:	01001f84 	movi	r4,126
  802a4c:	003f5906 	br	8027b4 <__alt_data_end+0xff8027b4>
  802a50:	98800117 	ldw	r2,4(r19)
  802a54:	003fa906 	br	8028fc <__alt_data_end+0xff8028fc>
  802a58:	6007883a 	mov	r3,r12
  802a5c:	003ea206 	br	8024e8 <__alt_data_end+0xff8024e8>

00802a60 <memset>:
  802a60:	20c000cc 	andi	r3,r4,3
  802a64:	2005883a 	mov	r2,r4
  802a68:	18004326 	beq	r3,zero,802b78 <memset+0x118>
  802a6c:	31ffffc4 	addi	r7,r6,-1
  802a70:	30004026 	beq	r6,zero,802b74 <memset+0x114>
  802a74:	2813883a 	mov	r9,r5
  802a78:	200d883a 	mov	r6,r4
  802a7c:	2007883a 	mov	r3,r4
  802a80:	00000406 	br	802a94 <memset+0x34>
  802a84:	3a3fffc4 	addi	r8,r7,-1
  802a88:	31800044 	addi	r6,r6,1
  802a8c:	38003926 	beq	r7,zero,802b74 <memset+0x114>
  802a90:	400f883a 	mov	r7,r8
  802a94:	18c00044 	addi	r3,r3,1
  802a98:	32400005 	stb	r9,0(r6)
  802a9c:	1a0000cc 	andi	r8,r3,3
  802aa0:	403ff81e 	bne	r8,zero,802a84 <__alt_data_end+0xff802a84>
  802aa4:	010000c4 	movi	r4,3
  802aa8:	21c02d2e 	bgeu	r4,r7,802b60 <memset+0x100>
  802aac:	29803fcc 	andi	r6,r5,255
  802ab0:	3008923a 	slli	r4,r6,8
  802ab4:	218cb03a 	or	r6,r4,r6
  802ab8:	3008943a 	slli	r4,r6,16
  802abc:	218cb03a 	or	r6,r4,r6
  802ac0:	010003c4 	movi	r4,15
  802ac4:	21c0182e 	bgeu	r4,r7,802b28 <memset+0xc8>
  802ac8:	3b3ffc04 	addi	r12,r7,-16
  802acc:	6018d13a 	srli	r12,r12,4
  802ad0:	1a000104 	addi	r8,r3,4
  802ad4:	1ac00204 	addi	r11,r3,8
  802ad8:	6008913a 	slli	r4,r12,4
  802adc:	1a800304 	addi	r10,r3,12
  802ae0:	1813883a 	mov	r9,r3
  802ae4:	21000504 	addi	r4,r4,20
  802ae8:	1909883a 	add	r4,r3,r4
  802aec:	49800015 	stw	r6,0(r9)
  802af0:	41800015 	stw	r6,0(r8)
  802af4:	59800015 	stw	r6,0(r11)
  802af8:	51800015 	stw	r6,0(r10)
  802afc:	42000404 	addi	r8,r8,16
  802b00:	4a400404 	addi	r9,r9,16
  802b04:	5ac00404 	addi	r11,r11,16
  802b08:	52800404 	addi	r10,r10,16
  802b0c:	413ff71e 	bne	r8,r4,802aec <__alt_data_end+0xff802aec>
  802b10:	63000044 	addi	r12,r12,1
  802b14:	6018913a 	slli	r12,r12,4
  802b18:	39c003cc 	andi	r7,r7,15
  802b1c:	010000c4 	movi	r4,3
  802b20:	1b07883a 	add	r3,r3,r12
  802b24:	21c00e2e 	bgeu	r4,r7,802b60 <memset+0x100>
  802b28:	1813883a 	mov	r9,r3
  802b2c:	3811883a 	mov	r8,r7
  802b30:	010000c4 	movi	r4,3
  802b34:	49800015 	stw	r6,0(r9)
  802b38:	423fff04 	addi	r8,r8,-4
  802b3c:	4a400104 	addi	r9,r9,4
  802b40:	223ffc36 	bltu	r4,r8,802b34 <__alt_data_end+0xff802b34>
  802b44:	393fff04 	addi	r4,r7,-4
  802b48:	2008d0ba 	srli	r4,r4,2
  802b4c:	39c000cc 	andi	r7,r7,3
  802b50:	21000044 	addi	r4,r4,1
  802b54:	2109883a 	add	r4,r4,r4
  802b58:	2109883a 	add	r4,r4,r4
  802b5c:	1907883a 	add	r3,r3,r4
  802b60:	38000426 	beq	r7,zero,802b74 <memset+0x114>
  802b64:	19cf883a 	add	r7,r3,r7
  802b68:	19400005 	stb	r5,0(r3)
  802b6c:	18c00044 	addi	r3,r3,1
  802b70:	19fffd1e 	bne	r3,r7,802b68 <__alt_data_end+0xff802b68>
  802b74:	f800283a 	ret
  802b78:	2007883a 	mov	r3,r4
  802b7c:	300f883a 	mov	r7,r6
  802b80:	003fc806 	br	802aa4 <__alt_data_end+0xff802aa4>

00802b84 <_open_r>:
  802b84:	defffd04 	addi	sp,sp,-12
  802b88:	dc000015 	stw	r16,0(sp)
  802b8c:	040020b4 	movhi	r16,130
  802b90:	dc400115 	stw	r17,4(sp)
  802b94:	843e4d04 	addi	r16,r16,-1740
  802b98:	2023883a 	mov	r17,r4
  802b9c:	2809883a 	mov	r4,r5
  802ba0:	300b883a 	mov	r5,r6
  802ba4:	380d883a 	mov	r6,r7
  802ba8:	dfc00215 	stw	ra,8(sp)
  802bac:	80000015 	stw	zero,0(r16)
  802bb0:	08179940 	call	817994 <open>
  802bb4:	00ffffc4 	movi	r3,-1
  802bb8:	10c00526 	beq	r2,r3,802bd0 <_open_r+0x4c>
  802bbc:	dfc00217 	ldw	ra,8(sp)
  802bc0:	dc400117 	ldw	r17,4(sp)
  802bc4:	dc000017 	ldw	r16,0(sp)
  802bc8:	dec00304 	addi	sp,sp,12
  802bcc:	f800283a 	ret
  802bd0:	80c00017 	ldw	r3,0(r16)
  802bd4:	183ff926 	beq	r3,zero,802bbc <__alt_data_end+0xff802bbc>
  802bd8:	88c00015 	stw	r3,0(r17)
  802bdc:	003ff706 	br	802bbc <__alt_data_end+0xff802bbc>

00802be0 <_printf_r>:
  802be0:	defffd04 	addi	sp,sp,-12
  802be4:	dfc00015 	stw	ra,0(sp)
  802be8:	d9800115 	stw	r6,4(sp)
  802bec:	d9c00215 	stw	r7,8(sp)
  802bf0:	280d883a 	mov	r6,r5
  802bf4:	21400217 	ldw	r5,8(r4)
  802bf8:	d9c00104 	addi	r7,sp,4
  802bfc:	08049b00 	call	8049b0 <___vfprintf_internal_r>
  802c00:	dfc00017 	ldw	ra,0(sp)
  802c04:	dec00304 	addi	sp,sp,12
  802c08:	f800283a 	ret

00802c0c <printf>:
  802c0c:	defffc04 	addi	sp,sp,-16
  802c10:	dfc00015 	stw	ra,0(sp)
  802c14:	d9400115 	stw	r5,4(sp)
  802c18:	d9800215 	stw	r6,8(sp)
  802c1c:	d9c00315 	stw	r7,12(sp)
  802c20:	008020b4 	movhi	r2,130
  802c24:	10b6e204 	addi	r2,r2,-9336
  802c28:	10800017 	ldw	r2,0(r2)
  802c2c:	200b883a 	mov	r5,r4
  802c30:	d9800104 	addi	r6,sp,4
  802c34:	11000217 	ldw	r4,8(r2)
  802c38:	08069000 	call	806900 <__vfprintf_internal>
  802c3c:	dfc00017 	ldw	ra,0(sp)
  802c40:	dec00404 	addi	sp,sp,16
  802c44:	f800283a 	ret

00802c48 <_putchar_r>:
  802c48:	21800217 	ldw	r6,8(r4)
  802c4c:	080a1781 	jmpi	80a178 <_putc_r>

00802c50 <putchar>:
  802c50:	008020b4 	movhi	r2,130
  802c54:	10b6e204 	addi	r2,r2,-9336
  802c58:	200b883a 	mov	r5,r4
  802c5c:	11000017 	ldw	r4,0(r2)
  802c60:	21800217 	ldw	r6,8(r4)
  802c64:	080a1781 	jmpi	80a178 <_putc_r>

00802c68 <_puts_r>:
  802c68:	defff604 	addi	sp,sp,-40
  802c6c:	dc000715 	stw	r16,28(sp)
  802c70:	2021883a 	mov	r16,r4
  802c74:	2809883a 	mov	r4,r5
  802c78:	dc400815 	stw	r17,32(sp)
  802c7c:	dfc00915 	stw	ra,36(sp)
  802c80:	2823883a 	mov	r17,r5
  802c84:	08032200 	call	803220 <strlen>
  802c88:	81400217 	ldw	r5,8(r16)
  802c8c:	11000044 	addi	r4,r2,1
  802c90:	d8800115 	stw	r2,4(sp)
  802c94:	008020b4 	movhi	r2,130
  802c98:	2980030b 	ldhu	r6,12(r5)
  802c9c:	10adb604 	addi	r2,r2,-18728
  802ca0:	d8800215 	stw	r2,8(sp)
  802ca4:	00800044 	movi	r2,1
  802ca8:	d8800315 	stw	r2,12(sp)
  802cac:	00800084 	movi	r2,2
  802cb0:	d8800515 	stw	r2,20(sp)
  802cb4:	dc400015 	stw	r17,0(sp)
  802cb8:	d9000615 	stw	r4,24(sp)
  802cbc:	dec00415 	stw	sp,16(sp)
  802cc0:	3088000c 	andi	r2,r6,8192
  802cc4:	1000061e 	bne	r2,zero,802ce0 <_puts_r+0x78>
  802cc8:	29001917 	ldw	r4,100(r5)
  802ccc:	00b7ffc4 	movi	r2,-8193
  802cd0:	31880014 	ori	r6,r6,8192
  802cd4:	2084703a 	and	r2,r4,r2
  802cd8:	2980030d 	sth	r6,12(r5)
  802cdc:	28801915 	stw	r2,100(r5)
  802ce0:	8009883a 	mov	r4,r16
  802ce4:	d9800404 	addi	r6,sp,16
  802ce8:	08085b80 	call	8085b8 <__sfvwrite_r>
  802cec:	1000061e 	bne	r2,zero,802d08 <_puts_r+0xa0>
  802cf0:	00800284 	movi	r2,10
  802cf4:	dfc00917 	ldw	ra,36(sp)
  802cf8:	dc400817 	ldw	r17,32(sp)
  802cfc:	dc000717 	ldw	r16,28(sp)
  802d00:	dec00a04 	addi	sp,sp,40
  802d04:	f800283a 	ret
  802d08:	00bfffc4 	movi	r2,-1
  802d0c:	003ff906 	br	802cf4 <__alt_data_end+0xff802cf4>

00802d10 <puts>:
  802d10:	008020b4 	movhi	r2,130
  802d14:	10b6e204 	addi	r2,r2,-9336
  802d18:	200b883a 	mov	r5,r4
  802d1c:	11000017 	ldw	r4,0(r2)
  802d20:	0802c681 	jmpi	802c68 <_puts_r>

00802d24 <lflush>:
  802d24:	2080030b 	ldhu	r2,12(r4)
  802d28:	00c00244 	movi	r3,9
  802d2c:	1080024c 	andi	r2,r2,9
  802d30:	10c00226 	beq	r2,r3,802d3c <lflush+0x18>
  802d34:	0005883a 	mov	r2,zero
  802d38:	f800283a 	ret
  802d3c:	0800f501 	jmpi	800f50 <fflush>

00802d40 <__srefill_r>:
  802d40:	defffc04 	addi	sp,sp,-16
  802d44:	dc400115 	stw	r17,4(sp)
  802d48:	dc000015 	stw	r16,0(sp)
  802d4c:	dfc00315 	stw	ra,12(sp)
  802d50:	dc800215 	stw	r18,8(sp)
  802d54:	2023883a 	mov	r17,r4
  802d58:	2821883a 	mov	r16,r5
  802d5c:	20000226 	beq	r4,zero,802d68 <__srefill_r+0x28>
  802d60:	20800e17 	ldw	r2,56(r4)
  802d64:	10003c26 	beq	r2,zero,802e58 <__srefill_r+0x118>
  802d68:	80c0030b 	ldhu	r3,12(r16)
  802d6c:	1908000c 	andi	r4,r3,8192
  802d70:	1805883a 	mov	r2,r3
  802d74:	2000071e 	bne	r4,zero,802d94 <__srefill_r+0x54>
  802d78:	81001917 	ldw	r4,100(r16)
  802d7c:	18880014 	ori	r2,r3,8192
  802d80:	00f7ffc4 	movi	r3,-8193
  802d84:	20c8703a 	and	r4,r4,r3
  802d88:	8080030d 	sth	r2,12(r16)
  802d8c:	1007883a 	mov	r3,r2
  802d90:	81001915 	stw	r4,100(r16)
  802d94:	80000115 	stw	zero,4(r16)
  802d98:	1100080c 	andi	r4,r2,32
  802d9c:	2000571e 	bne	r4,zero,802efc <__srefill_r+0x1bc>
  802da0:	1100010c 	andi	r4,r2,4
  802da4:	20001f26 	beq	r4,zero,802e24 <__srefill_r+0xe4>
  802da8:	81400c17 	ldw	r5,48(r16)
  802dac:	28000826 	beq	r5,zero,802dd0 <__srefill_r+0x90>
  802db0:	80801004 	addi	r2,r16,64
  802db4:	28800226 	beq	r5,r2,802dc0 <__srefill_r+0x80>
  802db8:	8809883a 	mov	r4,r17
  802dbc:	080159c0 	call	80159c <_free_r>
  802dc0:	80800f17 	ldw	r2,60(r16)
  802dc4:	80000c15 	stw	zero,48(r16)
  802dc8:	80800115 	stw	r2,4(r16)
  802dcc:	1000391e 	bne	r2,zero,802eb4 <__srefill_r+0x174>
  802dd0:	80800417 	ldw	r2,16(r16)
  802dd4:	10004b26 	beq	r2,zero,802f04 <__srefill_r+0x1c4>
  802dd8:	8480030b 	ldhu	r18,12(r16)
  802ddc:	908000cc 	andi	r2,r18,3
  802de0:	10001f1e 	bne	r2,zero,802e60 <__srefill_r+0x120>
  802de4:	81800417 	ldw	r6,16(r16)
  802de8:	80800817 	ldw	r2,32(r16)
  802dec:	81400717 	ldw	r5,28(r16)
  802df0:	81c00517 	ldw	r7,20(r16)
  802df4:	81800015 	stw	r6,0(r16)
  802df8:	8809883a 	mov	r4,r17
  802dfc:	103ee83a 	callr	r2
  802e00:	80800115 	stw	r2,4(r16)
  802e04:	00800e0e 	bge	zero,r2,802e40 <__srefill_r+0x100>
  802e08:	0005883a 	mov	r2,zero
  802e0c:	dfc00317 	ldw	ra,12(sp)
  802e10:	dc800217 	ldw	r18,8(sp)
  802e14:	dc400117 	ldw	r17,4(sp)
  802e18:	dc000017 	ldw	r16,0(sp)
  802e1c:	dec00404 	addi	sp,sp,16
  802e20:	f800283a 	ret
  802e24:	1100040c 	andi	r4,r2,16
  802e28:	20003026 	beq	r4,zero,802eec <__srefill_r+0x1ac>
  802e2c:	1080020c 	andi	r2,r2,8
  802e30:	1000241e 	bne	r2,zero,802ec4 <__srefill_r+0x184>
  802e34:	18c00114 	ori	r3,r3,4
  802e38:	80c0030d 	sth	r3,12(r16)
  802e3c:	003fe406 	br	802dd0 <__alt_data_end+0xff802dd0>
  802e40:	80c0030b 	ldhu	r3,12(r16)
  802e44:	1000161e 	bne	r2,zero,802ea0 <__srefill_r+0x160>
  802e48:	18c00814 	ori	r3,r3,32
  802e4c:	00bfffc4 	movi	r2,-1
  802e50:	80c0030d 	sth	r3,12(r16)
  802e54:	003fed06 	br	802e0c <__alt_data_end+0xff802e0c>
  802e58:	08012d00 	call	8012d0 <__sinit>
  802e5c:	003fc206 	br	802d68 <__alt_data_end+0xff802d68>
  802e60:	008020b4 	movhi	r2,130
  802e64:	10b6e104 	addi	r2,r2,-9340
  802e68:	11000017 	ldw	r4,0(r2)
  802e6c:	01402034 	movhi	r5,128
  802e70:	00800044 	movi	r2,1
  802e74:	294b4904 	addi	r5,r5,11556
  802e78:	8080030d 	sth	r2,12(r16)
  802e7c:	0801d740 	call	801d74 <_fwalk>
  802e80:	00800244 	movi	r2,9
  802e84:	8480030d 	sth	r18,12(r16)
  802e88:	9480024c 	andi	r18,r18,9
  802e8c:	90bfd51e 	bne	r18,r2,802de4 <__alt_data_end+0xff802de4>
  802e90:	8809883a 	mov	r4,r17
  802e94:	800b883a 	mov	r5,r16
  802e98:	0800cec0 	call	800cec <__sflush_r>
  802e9c:	003fd106 	br	802de4 <__alt_data_end+0xff802de4>
  802ea0:	18c01014 	ori	r3,r3,64
  802ea4:	80000115 	stw	zero,4(r16)
  802ea8:	00bfffc4 	movi	r2,-1
  802eac:	80c0030d 	sth	r3,12(r16)
  802eb0:	003fd606 	br	802e0c <__alt_data_end+0xff802e0c>
  802eb4:	80c00e17 	ldw	r3,56(r16)
  802eb8:	0005883a 	mov	r2,zero
  802ebc:	80c00015 	stw	r3,0(r16)
  802ec0:	003fd206 	br	802e0c <__alt_data_end+0xff802e0c>
  802ec4:	8809883a 	mov	r4,r17
  802ec8:	800b883a 	mov	r5,r16
  802ecc:	0800ef40 	call	800ef4 <_fflush_r>
  802ed0:	10000a1e 	bne	r2,zero,802efc <__srefill_r+0x1bc>
  802ed4:	8080030b 	ldhu	r2,12(r16)
  802ed8:	00fffdc4 	movi	r3,-9
  802edc:	80000215 	stw	zero,8(r16)
  802ee0:	1886703a 	and	r3,r3,r2
  802ee4:	80000615 	stw	zero,24(r16)
  802ee8:	003fd206 	br	802e34 <__alt_data_end+0xff802e34>
  802eec:	00800244 	movi	r2,9
  802ef0:	88800015 	stw	r2,0(r17)
  802ef4:	18c01014 	ori	r3,r3,64
  802ef8:	80c0030d 	sth	r3,12(r16)
  802efc:	00bfffc4 	movi	r2,-1
  802f00:	003fc206 	br	802e0c <__alt_data_end+0xff802e0c>
  802f04:	8809883a 	mov	r4,r17
  802f08:	800b883a 	mov	r5,r16
  802f0c:	08021000 	call	802100 <__smakebuf_r>
  802f10:	003fb106 	br	802dd8 <__alt_data_end+0xff802dd8>

00802f14 <__srget_r>:
  802f14:	defffd04 	addi	sp,sp,-12
  802f18:	dc400115 	stw	r17,4(sp)
  802f1c:	dc000015 	stw	r16,0(sp)
  802f20:	dfc00215 	stw	ra,8(sp)
  802f24:	2023883a 	mov	r17,r4
  802f28:	2821883a 	mov	r16,r5
  802f2c:	20000226 	beq	r4,zero,802f38 <__srget_r+0x24>
  802f30:	20800e17 	ldw	r2,56(r4)
  802f34:	10001026 	beq	r2,zero,802f78 <__srget_r+0x64>
  802f38:	8809883a 	mov	r4,r17
  802f3c:	800b883a 	mov	r5,r16
  802f40:	0802d400 	call	802d40 <__srefill_r>
  802f44:	10000e1e 	bne	r2,zero,802f80 <__srget_r+0x6c>
  802f48:	80c00017 	ldw	r3,0(r16)
  802f4c:	80800117 	ldw	r2,4(r16)
  802f50:	19000044 	addi	r4,r3,1
  802f54:	10bfffc4 	addi	r2,r2,-1
  802f58:	80800115 	stw	r2,4(r16)
  802f5c:	81000015 	stw	r4,0(r16)
  802f60:	18800003 	ldbu	r2,0(r3)
  802f64:	dfc00217 	ldw	ra,8(sp)
  802f68:	dc400117 	ldw	r17,4(sp)
  802f6c:	dc000017 	ldw	r16,0(sp)
  802f70:	dec00304 	addi	sp,sp,12
  802f74:	f800283a 	ret
  802f78:	08012d00 	call	8012d0 <__sinit>
  802f7c:	003fee06 	br	802f38 <__alt_data_end+0xff802f38>
  802f80:	00bfffc4 	movi	r2,-1
  802f84:	003ff706 	br	802f64 <__alt_data_end+0xff802f64>

00802f88 <__srget>:
  802f88:	008020b4 	movhi	r2,130
  802f8c:	10b6e204 	addi	r2,r2,-9336
  802f90:	200b883a 	mov	r5,r4
  802f94:	11000017 	ldw	r4,0(r2)
  802f98:	0802f141 	jmpi	802f14 <__srget_r>

00802f9c <_sbrk_r>:
  802f9c:	defffd04 	addi	sp,sp,-12
  802fa0:	dc000015 	stw	r16,0(sp)
  802fa4:	040020b4 	movhi	r16,130
  802fa8:	dc400115 	stw	r17,4(sp)
  802fac:	843e4d04 	addi	r16,r16,-1740
  802fb0:	2023883a 	mov	r17,r4
  802fb4:	2809883a 	mov	r4,r5
  802fb8:	dfc00215 	stw	ra,8(sp)
  802fbc:	80000015 	stw	zero,0(r16)
  802fc0:	0817c980 	call	817c98 <sbrk>
  802fc4:	00ffffc4 	movi	r3,-1
  802fc8:	10c00526 	beq	r2,r3,802fe0 <_sbrk_r+0x44>
  802fcc:	dfc00217 	ldw	ra,8(sp)
  802fd0:	dc400117 	ldw	r17,4(sp)
  802fd4:	dc000017 	ldw	r16,0(sp)
  802fd8:	dec00304 	addi	sp,sp,12
  802fdc:	f800283a 	ret
  802fe0:	80c00017 	ldw	r3,0(r16)
  802fe4:	183ff926 	beq	r3,zero,802fcc <__alt_data_end+0xff802fcc>
  802fe8:	88c00015 	stw	r3,0(r17)
  802fec:	003ff706 	br	802fcc <__alt_data_end+0xff802fcc>

00802ff0 <sscanf>:
  802ff0:	deffe204 	addi	sp,sp,-120
  802ff4:	dfc01b15 	stw	ra,108(sp)
  802ff8:	dc001a15 	stw	r16,104(sp)
  802ffc:	d9801c15 	stw	r6,112(sp)
  803000:	d9c01d15 	stw	r7,116(sp)
  803004:	00c08104 	movi	r3,516
  803008:	2821883a 	mov	r16,r5
  80300c:	d8c0030d 	sth	r3,12(sp)
  803010:	d9000015 	stw	r4,0(sp)
  803014:	d9000415 	stw	r4,16(sp)
  803018:	08032200 	call	803220 <strlen>
  80301c:	00c020b4 	movhi	r3,130
  803020:	18f6e204 	addi	r3,r3,-9336
  803024:	d8800115 	stw	r2,4(sp)
  803028:	d8800515 	stw	r2,20(sp)
  80302c:	19000017 	ldw	r4,0(r3)
  803030:	00802034 	movhi	r2,128
  803034:	108c4e04 	addi	r2,r2,12600
  803038:	d8800815 	stw	r2,32(sp)
  80303c:	d80b883a 	mov	r5,sp
  803040:	800d883a 	mov	r6,r16
  803044:	d9c01c04 	addi	r7,sp,112
  803048:	00bfffc4 	movi	r2,-1
  80304c:	d8000c15 	stw	zero,48(sp)
  803050:	d8001115 	stw	zero,68(sp)
  803054:	d880038d 	sth	r2,14(sp)
  803058:	08032b80 	call	8032b8 <__ssvfscanf_r>
  80305c:	dfc01b17 	ldw	ra,108(sp)
  803060:	dc001a17 	ldw	r16,104(sp)
  803064:	dec01e04 	addi	sp,sp,120
  803068:	f800283a 	ret

0080306c <_sscanf_r>:
  80306c:	deffe204 	addi	sp,sp,-120
  803070:	dc001b15 	stw	r16,108(sp)
  803074:	2021883a 	mov	r16,r4
  803078:	dfc01c15 	stw	ra,112(sp)
  80307c:	d9c01d15 	stw	r7,116(sp)
  803080:	00808104 	movi	r2,516
  803084:	2809883a 	mov	r4,r5
  803088:	d9400015 	stw	r5,0(sp)
  80308c:	d9400415 	stw	r5,16(sp)
  803090:	d9801a15 	stw	r6,104(sp)
  803094:	d880030d 	sth	r2,12(sp)
  803098:	08032200 	call	803220 <strlen>
  80309c:	d8800115 	stw	r2,4(sp)
  8030a0:	d8800515 	stw	r2,20(sp)
  8030a4:	d9801a17 	ldw	r6,104(sp)
  8030a8:	00802034 	movhi	r2,128
  8030ac:	108c4e04 	addi	r2,r2,12600
  8030b0:	d8800815 	stw	r2,32(sp)
  8030b4:	8009883a 	mov	r4,r16
  8030b8:	d80b883a 	mov	r5,sp
  8030bc:	d9c01d04 	addi	r7,sp,116
  8030c0:	00bfffc4 	movi	r2,-1
  8030c4:	d8000c15 	stw	zero,48(sp)
  8030c8:	d8001115 	stw	zero,68(sp)
  8030cc:	d880038d 	sth	r2,14(sp)
  8030d0:	08032b80 	call	8032b8 <__ssvfscanf_r>
  8030d4:	dfc01c17 	ldw	ra,112(sp)
  8030d8:	dc001b17 	ldw	r16,108(sp)
  8030dc:	dec01e04 	addi	sp,sp,120
  8030e0:	f800283a 	ret

008030e4 <__sread>:
  8030e4:	defffe04 	addi	sp,sp,-8
  8030e8:	dc000015 	stw	r16,0(sp)
  8030ec:	2821883a 	mov	r16,r5
  8030f0:	2940038f 	ldh	r5,14(r5)
  8030f4:	dfc00115 	stw	ra,4(sp)
  8030f8:	080a2e40 	call	80a2e4 <_read_r>
  8030fc:	10000716 	blt	r2,zero,80311c <__sread+0x38>
  803100:	80c01417 	ldw	r3,80(r16)
  803104:	1887883a 	add	r3,r3,r2
  803108:	80c01415 	stw	r3,80(r16)
  80310c:	dfc00117 	ldw	ra,4(sp)
  803110:	dc000017 	ldw	r16,0(sp)
  803114:	dec00204 	addi	sp,sp,8
  803118:	f800283a 	ret
  80311c:	80c0030b 	ldhu	r3,12(r16)
  803120:	18fbffcc 	andi	r3,r3,61439
  803124:	80c0030d 	sth	r3,12(r16)
  803128:	dfc00117 	ldw	ra,4(sp)
  80312c:	dc000017 	ldw	r16,0(sp)
  803130:	dec00204 	addi	sp,sp,8
  803134:	f800283a 	ret

00803138 <__seofread>:
  803138:	0005883a 	mov	r2,zero
  80313c:	f800283a 	ret

00803140 <__swrite>:
  803140:	2880030b 	ldhu	r2,12(r5)
  803144:	defffb04 	addi	sp,sp,-20
  803148:	dcc00315 	stw	r19,12(sp)
  80314c:	dc800215 	stw	r18,8(sp)
  803150:	dc400115 	stw	r17,4(sp)
  803154:	dc000015 	stw	r16,0(sp)
  803158:	dfc00415 	stw	ra,16(sp)
  80315c:	10c0400c 	andi	r3,r2,256
  803160:	2821883a 	mov	r16,r5
  803164:	2027883a 	mov	r19,r4
  803168:	3025883a 	mov	r18,r6
  80316c:	3823883a 	mov	r17,r7
  803170:	18000526 	beq	r3,zero,803188 <__swrite+0x48>
  803174:	2940038f 	ldh	r5,14(r5)
  803178:	000d883a 	mov	r6,zero
  80317c:	01c00084 	movi	r7,2
  803180:	0808bdc0 	call	808bdc <_lseek_r>
  803184:	8080030b 	ldhu	r2,12(r16)
  803188:	8140038f 	ldh	r5,14(r16)
  80318c:	10bbffcc 	andi	r2,r2,61439
  803190:	9809883a 	mov	r4,r19
  803194:	900d883a 	mov	r6,r18
  803198:	880f883a 	mov	r7,r17
  80319c:	8080030d 	sth	r2,12(r16)
  8031a0:	dfc00417 	ldw	ra,16(sp)
  8031a4:	dcc00317 	ldw	r19,12(sp)
  8031a8:	dc800217 	ldw	r18,8(sp)
  8031ac:	dc400117 	ldw	r17,4(sp)
  8031b0:	dc000017 	ldw	r16,0(sp)
  8031b4:	dec00504 	addi	sp,sp,20
  8031b8:	08069e01 	jmpi	8069e0 <_write_r>

008031bc <__sseek>:
  8031bc:	defffe04 	addi	sp,sp,-8
  8031c0:	dc000015 	stw	r16,0(sp)
  8031c4:	2821883a 	mov	r16,r5
  8031c8:	2940038f 	ldh	r5,14(r5)
  8031cc:	dfc00115 	stw	ra,4(sp)
  8031d0:	0808bdc0 	call	808bdc <_lseek_r>
  8031d4:	00ffffc4 	movi	r3,-1
  8031d8:	10c00826 	beq	r2,r3,8031fc <__sseek+0x40>
  8031dc:	80c0030b 	ldhu	r3,12(r16)
  8031e0:	80801415 	stw	r2,80(r16)
  8031e4:	18c40014 	ori	r3,r3,4096
  8031e8:	80c0030d 	sth	r3,12(r16)
  8031ec:	dfc00117 	ldw	ra,4(sp)
  8031f0:	dc000017 	ldw	r16,0(sp)
  8031f4:	dec00204 	addi	sp,sp,8
  8031f8:	f800283a 	ret
  8031fc:	80c0030b 	ldhu	r3,12(r16)
  803200:	18fbffcc 	andi	r3,r3,61439
  803204:	80c0030d 	sth	r3,12(r16)
  803208:	dfc00117 	ldw	ra,4(sp)
  80320c:	dc000017 	ldw	r16,0(sp)
  803210:	dec00204 	addi	sp,sp,8
  803214:	f800283a 	ret

00803218 <__sclose>:
  803218:	2940038f 	ldh	r5,14(r5)
  80321c:	0806b901 	jmpi	806b90 <_close_r>

00803220 <strlen>:
  803220:	208000cc 	andi	r2,r4,3
  803224:	10002026 	beq	r2,zero,8032a8 <strlen+0x88>
  803228:	20800007 	ldb	r2,0(r4)
  80322c:	10002026 	beq	r2,zero,8032b0 <strlen+0x90>
  803230:	2005883a 	mov	r2,r4
  803234:	00000206 	br	803240 <strlen+0x20>
  803238:	10c00007 	ldb	r3,0(r2)
  80323c:	18001826 	beq	r3,zero,8032a0 <strlen+0x80>
  803240:	10800044 	addi	r2,r2,1
  803244:	10c000cc 	andi	r3,r2,3
  803248:	183ffb1e 	bne	r3,zero,803238 <__alt_data_end+0xff803238>
  80324c:	10c00017 	ldw	r3,0(r2)
  803250:	01ffbff4 	movhi	r7,65279
  803254:	39ffbfc4 	addi	r7,r7,-257
  803258:	00ca303a 	nor	r5,zero,r3
  80325c:	01a02074 	movhi	r6,32897
  803260:	19c7883a 	add	r3,r3,r7
  803264:	31a02004 	addi	r6,r6,-32640
  803268:	1946703a 	and	r3,r3,r5
  80326c:	1986703a 	and	r3,r3,r6
  803270:	1800091e 	bne	r3,zero,803298 <strlen+0x78>
  803274:	10800104 	addi	r2,r2,4
  803278:	10c00017 	ldw	r3,0(r2)
  80327c:	19cb883a 	add	r5,r3,r7
  803280:	00c6303a 	nor	r3,zero,r3
  803284:	28c6703a 	and	r3,r5,r3
  803288:	1986703a 	and	r3,r3,r6
  80328c:	183ff926 	beq	r3,zero,803274 <__alt_data_end+0xff803274>
  803290:	00000106 	br	803298 <strlen+0x78>
  803294:	10800044 	addi	r2,r2,1
  803298:	10c00007 	ldb	r3,0(r2)
  80329c:	183ffd1e 	bne	r3,zero,803294 <__alt_data_end+0xff803294>
  8032a0:	1105c83a 	sub	r2,r2,r4
  8032a4:	f800283a 	ret
  8032a8:	2005883a 	mov	r2,r4
  8032ac:	003fe706 	br	80324c <__alt_data_end+0xff80324c>
  8032b0:	0005883a 	mov	r2,zero
  8032b4:	f800283a 	ret

008032b8 <__ssvfscanf_r>:
  8032b8:	2880030b 	ldhu	r2,12(r5)
  8032bc:	deff4a04 	addi	sp,sp,-728
  8032c0:	df00b415 	stw	fp,720(sp)
  8032c4:	dd80b215 	stw	r22,712(sp)
  8032c8:	dfc0b515 	stw	ra,724(sp)
  8032cc:	ddc0b315 	stw	r23,716(sp)
  8032d0:	dd40b115 	stw	r21,708(sp)
  8032d4:	dd00b015 	stw	r20,704(sp)
  8032d8:	dcc0af15 	stw	r19,700(sp)
  8032dc:	dc80ae15 	stw	r18,696(sp)
  8032e0:	dc40ad15 	stw	r17,692(sp)
  8032e4:	dc00ac15 	stw	r16,688(sp)
  8032e8:	10c8000c 	andi	r3,r2,8192
  8032ec:	d9c09c15 	stw	r7,624(sp)
  8032f0:	2839883a 	mov	fp,r5
  8032f4:	202d883a 	mov	r22,r4
  8032f8:	1800061e 	bne	r3,zero,803314 <__ssvfscanf_r+0x5c>
  8032fc:	29001917 	ldw	r4,100(r5)
  803300:	00f7ffc4 	movi	r3,-8193
  803304:	10880014 	ori	r2,r2,8192
  803308:	20c6703a 	and	r3,r4,r3
  80330c:	2880030d 	sth	r2,12(r5)
  803310:	28c01915 	stw	r3,100(r5)
  803314:	30800003 	ldbu	r2,0(r6)
  803318:	0029883a 	mov	r20,zero
  80331c:	05c020b4 	movhi	r23,130
  803320:	d800a115 	stw	zero,644(sp)
  803324:	d8009e15 	stw	zero,632(sp)
  803328:	d8009f15 	stw	zero,636(sp)
  80332c:	d8809b15 	stw	r2,620(sp)
  803330:	bdf6e504 	addi	r23,r23,-9324
  803334:	a025883a 	mov	r18,r20
  803338:	34400044 	addi	r17,r6,1
  80333c:	10001e26 	beq	r2,zero,8033b8 <__ssvfscanf_r+0x100>
  803340:	b9000017 	ldw	r4,0(r23)
  803344:	2087883a 	add	r3,r4,r2
  803348:	18c00043 	ldbu	r3,1(r3)
  80334c:	18c0020c 	andi	r3,r3,8
  803350:	18001b26 	beq	r3,zero,8033c0 <__ssvfscanf_r+0x108>
  803354:	e0800117 	ldw	r2,4(fp)
  803358:	00800e0e 	bge	zero,r2,803394 <__ssvfscanf_r+0xdc>
  80335c:	e0c00017 	ldw	r3,0(fp)
  803360:	b9000017 	ldw	r4,0(r23)
  803364:	18800003 	ldbu	r2,0(r3)
  803368:	2085883a 	add	r2,r4,r2
  80336c:	10800043 	ldbu	r2,1(r2)
  803370:	1080020c 	andi	r2,r2,8
  803374:	10000b26 	beq	r2,zero,8033a4 <__ssvfscanf_r+0xec>
  803378:	e0800117 	ldw	r2,4(fp)
  80337c:	18c00044 	addi	r3,r3,1
  803380:	e0c00015 	stw	r3,0(fp)
  803384:	10bfffc4 	addi	r2,r2,-1
  803388:	e0800115 	stw	r2,4(fp)
  80338c:	94800044 	addi	r18,r18,1
  803390:	00bff216 	blt	zero,r2,80335c <__alt_data_end+0xff80335c>
  803394:	b009883a 	mov	r4,r22
  803398:	e00b883a 	mov	r5,fp
  80339c:	080cecc0 	call	80cecc <__ssrefill_r>
  8033a0:	103fee26 	beq	r2,zero,80335c <__alt_data_end+0xff80335c>
  8033a4:	880d883a 	mov	r6,r17
  8033a8:	30800003 	ldbu	r2,0(r6)
  8033ac:	34400044 	addi	r17,r6,1
  8033b0:	d8809b15 	stw	r2,620(sp)
  8033b4:	103fe21e 	bne	r2,zero,803340 <__alt_data_end+0xff803340>
  8033b8:	d8809f17 	ldw	r2,636(sp)
  8033bc:	00009b06 	br	80362c <__ssvfscanf_r+0x374>
  8033c0:	00c00944 	movi	r3,37
  8033c4:	10c0a61e 	bne	r2,r3,803660 <__ssvfscanf_r+0x3a8>
  8033c8:	31800043 	ldbu	r6,1(r6)
  8033cc:	0021883a 	mov	r16,zero
  8033d0:	002b883a 	mov	r21,zero
  8033d4:	01c01e04 	movi	r7,120
  8033d8:	02801b04 	movi	r10,108
  8033dc:	89400044 	addi	r5,r17,1
  8033e0:	39821336 	bltu	r7,r6,803c30 <__ssvfscanf_r+0x978>
  8033e4:	300490ba 	slli	r2,r6,2
  8033e8:	00c02034 	movhi	r3,128
  8033ec:	18ccff04 	addi	r3,r3,13308
  8033f0:	10c5883a 	add	r2,r2,r3
  8033f4:	10800017 	ldw	r2,0(r2)
  8033f8:	1000683a 	jmp	r2
  8033fc:	00803628 	cmpgeui	r2,zero,216
  803400:	00803c30 	cmpltui	r2,zero,240
  803404:	00803c30 	cmpltui	r2,zero,240
  803408:	00803c30 	cmpltui	r2,zero,240
  80340c:	00803c30 	cmpltui	r2,zero,240
  803410:	00803c30 	cmpltui	r2,zero,240
  803414:	00803c30 	cmpltui	r2,zero,240
  803418:	00803c30 	cmpltui	r2,zero,240
  80341c:	00803c30 	cmpltui	r2,zero,240
  803420:	00803c30 	cmpltui	r2,zero,240
  803424:	00803c30 	cmpltui	r2,zero,240
  803428:	00803c30 	cmpltui	r2,zero,240
  80342c:	00803c30 	cmpltui	r2,zero,240
  803430:	00803c30 	cmpltui	r2,zero,240
  803434:	00803c30 	cmpltui	r2,zero,240
  803438:	00803c30 	cmpltui	r2,zero,240
  80343c:	00803c30 	cmpltui	r2,zero,240
  803440:	00803c30 	cmpltui	r2,zero,240
  803444:	00803c30 	cmpltui	r2,zero,240
  803448:	00803c30 	cmpltui	r2,zero,240
  80344c:	00803c30 	cmpltui	r2,zero,240
  803450:	00803c30 	cmpltui	r2,zero,240
  803454:	00803c30 	cmpltui	r2,zero,240
  803458:	00803c30 	cmpltui	r2,zero,240
  80345c:	00803c30 	cmpltui	r2,zero,240
  803460:	00803c30 	cmpltui	r2,zero,240
  803464:	00803c30 	cmpltui	r2,zero,240
  803468:	00803c30 	cmpltui	r2,zero,240
  80346c:	00803c30 	cmpltui	r2,zero,240
  803470:	00803c30 	cmpltui	r2,zero,240
  803474:	00803c30 	cmpltui	r2,zero,240
  803478:	00803c30 	cmpltui	r2,zero,240
  80347c:	00803c30 	cmpltui	r2,zero,240
  803480:	00803c30 	cmpltui	r2,zero,240
  803484:	00803c30 	cmpltui	r2,zero,240
  803488:	00803c30 	cmpltui	r2,zero,240
  80348c:	00803c30 	cmpltui	r2,zero,240
  803490:	0080365c 	xori	r2,zero,217
  803494:	00803c30 	cmpltui	r2,zero,240
  803498:	00803c30 	cmpltui	r2,zero,240
  80349c:	00803c30 	cmpltui	r2,zero,240
  8034a0:	00803c30 	cmpltui	r2,zero,240
  8034a4:	00803c7c 	xorhi	r2,zero,241
  8034a8:	00803c30 	cmpltui	r2,zero,240
  8034ac:	00803c30 	cmpltui	r2,zero,240
  8034b0:	00803c30 	cmpltui	r2,zero,240
  8034b4:	00803c30 	cmpltui	r2,zero,240
  8034b8:	00803c30 	cmpltui	r2,zero,240
  8034bc:	00803c10 	cmplti	r2,zero,240
  8034c0:	00803c10 	cmplti	r2,zero,240
  8034c4:	00803c10 	cmplti	r2,zero,240
  8034c8:	00803c10 	cmplti	r2,zero,240
  8034cc:	00803c10 	cmplti	r2,zero,240
  8034d0:	00803c10 	cmplti	r2,zero,240
  8034d4:	00803c10 	cmplti	r2,zero,240
  8034d8:	00803c10 	cmplti	r2,zero,240
  8034dc:	00803c10 	cmplti	r2,zero,240
  8034e0:	00803c10 	cmplti	r2,zero,240
  8034e4:	00803c30 	cmpltui	r2,zero,240
  8034e8:	00803c30 	cmpltui	r2,zero,240
  8034ec:	00803c30 	cmpltui	r2,zero,240
  8034f0:	00803c30 	cmpltui	r2,zero,240
  8034f4:	00803c30 	cmpltui	r2,zero,240
  8034f8:	00803c30 	cmpltui	r2,zero,240
  8034fc:	00803c30 	cmpltui	r2,zero,240
  803500:	00803c30 	cmpltui	r2,zero,240
  803504:	00803c30 	cmpltui	r2,zero,240
  803508:	00803c30 	cmpltui	r2,zero,240
  80350c:	00803cd4 	movui	r2,243
  803510:	00803cc8 	cmpgei	r2,zero,243
  803514:	00803c30 	cmpltui	r2,zero,240
  803518:	00803cc8 	cmpgei	r2,zero,243
  80351c:	00803c30 	cmpltui	r2,zero,240
  803520:	00803c30 	cmpltui	r2,zero,240
  803524:	00803c30 	cmpltui	r2,zero,240
  803528:	00803c30 	cmpltui	r2,zero,240
  80352c:	00803cb4 	movhi	r2,242
  803530:	00803c30 	cmpltui	r2,zero,240
  803534:	00803c30 	cmpltui	r2,zero,240
  803538:	00803c90 	cmplti	r2,zero,242
  80353c:	00803c30 	cmpltui	r2,zero,240
  803540:	00803c30 	cmpltui	r2,zero,240
  803544:	00803c30 	cmpltui	r2,zero,240
  803548:	00803c30 	cmpltui	r2,zero,240
  80354c:	00803c30 	cmpltui	r2,zero,240
  803550:	00803c30 	cmpltui	r2,zero,240
  803554:	00803c30 	cmpltui	r2,zero,240
  803558:	00803c30 	cmpltui	r2,zero,240
  80355c:	00803dec 	andhi	r2,zero,247
  803560:	00803c30 	cmpltui	r2,zero,240
  803564:	00803c30 	cmpltui	r2,zero,240
  803568:	00803dd4 	movui	r2,247
  80356c:	00803c30 	cmpltui	r2,zero,240
  803570:	00803c30 	cmpltui	r2,zero,240
  803574:	00803c30 	cmpltui	r2,zero,240
  803578:	00803c30 	cmpltui	r2,zero,240
  80357c:	00803c30 	cmpltui	r2,zero,240
  803580:	00803c30 	cmpltui	r2,zero,240
  803584:	00803c30 	cmpltui	r2,zero,240
  803588:	00803dc4 	movi	r2,247
  80358c:	00803da4 	muli	r2,zero,246
  803590:	00803cc8 	cmpgei	r2,zero,243
  803594:	00803cc8 	cmpgei	r2,zero,243
  803598:	00803cc8 	cmpgei	r2,zero,243
  80359c:	00803d90 	cmplti	r2,zero,246
  8035a0:	00803698 	cmpnei	r2,zero,218
  8035a4:	00803c30 	cmpltui	r2,zero,240
  8035a8:	00803c30 	cmpltui	r2,zero,240
  8035ac:	00803d7c 	xorhi	r2,zero,245
  8035b0:	00803c30 	cmpltui	r2,zero,240
  8035b4:	00803d50 	cmplti	r2,zero,245
  8035b8:	00803d48 	cmpgei	r2,zero,245
  8035bc:	00803d24 	muli	r2,zero,244
  8035c0:	00803c30 	cmpltui	r2,zero,240
  8035c4:	00803c30 	cmpltui	r2,zero,240
  8035c8:	00803d18 	cmpnei	r2,zero,244
  8035cc:	00803c30 	cmpltui	r2,zero,240
  8035d0:	00803cf8 	rdprs	r2,zero,243
  8035d4:	00803c30 	cmpltui	r2,zero,240
  8035d8:	00803c30 	cmpltui	r2,zero,240
  8035dc:	00803dec 	andhi	r2,zero,247
  8035e0:	013fff84 	movi	r4,-2
  8035e4:	1104cb1e 	bne	r2,r4,804914 <__ssvfscanf_r+0x165c>
  8035e8:	a021883a 	mov	r16,r20
  8035ec:	e0800117 	ldw	r2,4(fp)
  8035f0:	00839416 	blt	zero,r2,804444 <__ssvfscanf_r+0x118c>
  8035f4:	b009883a 	mov	r4,r22
  8035f8:	e00b883a 	mov	r5,fp
  8035fc:	080cecc0 	call	80cecc <__ssrefill_r>
  803600:	10039026 	beq	r2,zero,804444 <__ssvfscanf_r+0x118c>
  803604:	8007883a 	mov	r3,r16
  803608:	8821883a 	mov	r16,r17
  80360c:	dc40a017 	ldw	r17,640(sp)
  803610:	18039626 	beq	r3,zero,80446c <__ssvfscanf_r+0x11b4>
  803614:	dac09f17 	ldw	r11,636(sp)
  803618:	58000326 	beq	r11,zero,803628 <__ssvfscanf_r+0x370>
  80361c:	e080030b 	ldhu	r2,12(fp)
  803620:	1080100c 	andi	r2,r2,64
  803624:	1003ee26 	beq	r2,zero,8045e0 <__ssvfscanf_r+0x1328>
  803628:	00bfffc4 	movi	r2,-1
  80362c:	dfc0b517 	ldw	ra,724(sp)
  803630:	df00b417 	ldw	fp,720(sp)
  803634:	ddc0b317 	ldw	r23,716(sp)
  803638:	dd80b217 	ldw	r22,712(sp)
  80363c:	dd40b117 	ldw	r21,708(sp)
  803640:	dd00b017 	ldw	r20,704(sp)
  803644:	dcc0af17 	ldw	r19,700(sp)
  803648:	dc80ae17 	ldw	r18,696(sp)
  80364c:	dc40ad17 	ldw	r17,692(sp)
  803650:	dc00ac17 	ldw	r16,688(sp)
  803654:	dec0b604 	addi	sp,sp,728
  803658:	f800283a 	ret
  80365c:	2823883a 	mov	r17,r5
  803660:	e0800117 	ldw	r2,4(fp)
  803664:	0084340e 	bge	zero,r2,804738 <__ssvfscanf_r+0x1480>
  803668:	e0800017 	ldw	r2,0(fp)
  80366c:	88ffffc3 	ldbu	r3,-1(r17)
  803670:	11000003 	ldbu	r4,0(r2)
  803674:	20ff501e 	bne	r4,r3,8033b8 <__alt_data_end+0xff8033b8>
  803678:	e0c00117 	ldw	r3,4(fp)
  80367c:	10800044 	addi	r2,r2,1
  803680:	e0800015 	stw	r2,0(fp)
  803684:	18bfffc4 	addi	r2,r3,-1
  803688:	e0800115 	stw	r2,4(fp)
  80368c:	94800044 	addi	r18,r18,1
  803690:	880d883a 	mov	r6,r17
  803694:	003f4406 	br	8033a8 <__alt_data_end+0xff8033a8>
  803698:	00802074 	movhi	r2,129
  80369c:	10b0af04 	addi	r2,r2,-15684
  8036a0:	2823883a 	mov	r17,r5
  8036a4:	d880a115 	stw	r2,644(sp)
  8036a8:	d8009e15 	stw	zero,632(sp)
  8036ac:	04c000c4 	movi	r19,3
  8036b0:	e0800117 	ldw	r2,4(fp)
  8036b4:	00816c0e 	bge	zero,r2,803c68 <__ssvfscanf_r+0x9b0>
  8036b8:	8080100c 	andi	r2,r16,64
  8036bc:	10007f26 	beq	r2,zero,8038bc <__ssvfscanf_r+0x604>
  8036c0:	00800084 	movi	r2,2
  8036c4:	9882df26 	beq	r19,r2,804244 <__ssvfscanf_r+0xf8c>
  8036c8:	14c1d50e 	bge	r2,r19,803e20 <__ssvfscanf_r+0xb68>
  8036cc:	008000c4 	movi	r2,3
  8036d0:	98821926 	beq	r19,r2,803f38 <__ssvfscanf_r+0xc80>
  8036d4:	00800104 	movi	r2,4
  8036d8:	9881fc1e 	bne	r19,r2,803ecc <__ssvfscanf_r+0xc14>
  8036dc:	b009883a 	mov	r4,r22
  8036e0:	0808ba80 	call	808ba8 <_localeconv_r>
  8036e4:	10800017 	ldw	r2,0(r2)
  8036e8:	a93fffc4 	addi	r4,r21,-1
  8036ec:	d880a315 	stw	r2,652(sp)
  8036f0:	00805704 	movi	r2,348
  8036f4:	1102f82e 	bgeu	r2,r4,8042d8 <__ssvfscanf_r+0x1020>
  8036f8:	ad7fa8c4 	addi	r21,r21,-349
  8036fc:	dd40a215 	stw	r21,648(sp)
  803700:	05405744 	movi	r21,349
  803704:	84c1e014 	ori	r19,r16,1920
  803708:	0021883a 	mov	r16,zero
  80370c:	8005883a 	mov	r2,r16
  803710:	000d883a 	mov	r6,zero
  803714:	0019883a 	mov	r12,zero
  803718:	a821883a 	mov	r16,r21
  80371c:	dc409d15 	stw	r17,628(sp)
  803720:	b007883a 	mov	r3,r22
  803724:	d800a515 	stw	zero,660(sp)
  803728:	d800a415 	stw	zero,656(sp)
  80372c:	d800a015 	stw	zero,640(sp)
  803730:	dd000104 	addi	r20,sp,4
  803734:	02c01384 	movi	r11,78
  803738:	3023883a 	mov	r17,r6
  80373c:	602d883a 	mov	r22,r12
  803740:	102b883a 	mov	r21,r2
  803744:	e1000017 	ldw	r4,0(fp)
  803748:	21400003 	ldbu	r5,0(r4)
  80374c:	28bff544 	addi	r2,r5,-43
  803750:	10803fcc 	andi	r2,r2,255
  803754:	58812436 	bltu	r11,r2,803be8 <__ssvfscanf_r+0x930>
  803758:	100490ba 	slli	r2,r2,2
  80375c:	01802034 	movhi	r6,128
  803760:	318ddc04 	addi	r6,r6,14192
  803764:	1185883a 	add	r2,r2,r6
  803768:	10800017 	ldw	r2,0(r2)
  80376c:	1000683a 	jmp	r2
  803770:	00803bd4 	movui	r2,239
  803774:	00803be8 	cmpgeui	r2,zero,239
  803778:	00803bd4 	movui	r2,239
  80377c:	00803be8 	cmpgeui	r2,zero,239
  803780:	00803be8 	cmpgeui	r2,zero,239
  803784:	00803960 	cmpeqi	r2,zero,229
  803788:	008038fc 	xorhi	r2,zero,227
  80378c:	008038fc 	xorhi	r2,zero,227
  803790:	008038fc 	xorhi	r2,zero,227
  803794:	008038fc 	xorhi	r2,zero,227
  803798:	008038fc 	xorhi	r2,zero,227
  80379c:	008038fc 	xorhi	r2,zero,227
  8037a0:	008038fc 	xorhi	r2,zero,227
  8037a4:	008038fc 	xorhi	r2,zero,227
  8037a8:	008038fc 	xorhi	r2,zero,227
  8037ac:	00803be8 	cmpgeui	r2,zero,239
  8037b0:	00803be8 	cmpgeui	r2,zero,239
  8037b4:	00803be8 	cmpgeui	r2,zero,239
  8037b8:	00803be8 	cmpgeui	r2,zero,239
  8037bc:	00803be8 	cmpgeui	r2,zero,239
  8037c0:	00803be8 	cmpgeui	r2,zero,239
  8037c4:	00803be8 	cmpgeui	r2,zero,239
  8037c8:	00803bc4 	movi	r2,239
  8037cc:	00803be8 	cmpgeui	r2,zero,239
  8037d0:	00803be8 	cmpgeui	r2,zero,239
  8037d4:	00803be8 	cmpgeui	r2,zero,239
  8037d8:	00803b80 	call	803b8 <__alt_mem_sdram_0-0x77fc48>
  8037dc:	00803b64 	muli	r2,zero,237
  8037e0:	00803be8 	cmpgeui	r2,zero,239
  8037e4:	00803be8 	cmpgeui	r2,zero,239
  8037e8:	008039fc 	xorhi	r2,zero,231
  8037ec:	00803be8 	cmpgeui	r2,zero,239
  8037f0:	00803be8 	cmpgeui	r2,zero,239
  8037f4:	00803be8 	cmpgeui	r2,zero,239
  8037f8:	00803be8 	cmpgeui	r2,zero,239
  8037fc:	008039c4 	movi	r2,231
  803800:	00803be8 	cmpgeui	r2,zero,239
  803804:	00803be8 	cmpgeui	r2,zero,239
  803808:	00803be8 	cmpgeui	r2,zero,239
  80380c:	00803be8 	cmpgeui	r2,zero,239
  803810:	00803be8 	cmpgeui	r2,zero,239
  803814:	008039a8 	cmpgeui	r2,zero,230
  803818:	00803be8 	cmpgeui	r2,zero,239
  80381c:	00803be8 	cmpgeui	r2,zero,239
  803820:	00803be8 	cmpgeui	r2,zero,239
  803824:	00803be8 	cmpgeui	r2,zero,239
  803828:	0080398c 	andi	r2,zero,230
  80382c:	00803be8 	cmpgeui	r2,zero,239
  803830:	00803be8 	cmpgeui	r2,zero,239
  803834:	00803be8 	cmpgeui	r2,zero,239
  803838:	00803be8 	cmpgeui	r2,zero,239
  80383c:	00803be8 	cmpgeui	r2,zero,239
  803840:	00803be8 	cmpgeui	r2,zero,239
  803844:	00803be8 	cmpgeui	r2,zero,239
  803848:	00803bc4 	movi	r2,239
  80384c:	00803be8 	cmpgeui	r2,zero,239
  803850:	00803be8 	cmpgeui	r2,zero,239
  803854:	00803be8 	cmpgeui	r2,zero,239
  803858:	00803b80 	call	803b8 <__alt_mem_sdram_0-0x77fc48>
  80385c:	00803b64 	muli	r2,zero,237
  803860:	00803be8 	cmpgeui	r2,zero,239
  803864:	00803be8 	cmpgeui	r2,zero,239
  803868:	008039fc 	xorhi	r2,zero,231
  80386c:	00803be8 	cmpgeui	r2,zero,239
  803870:	00803be8 	cmpgeui	r2,zero,239
  803874:	00803be8 	cmpgeui	r2,zero,239
  803878:	00803be8 	cmpgeui	r2,zero,239
  80387c:	008039c4 	movi	r2,231
  803880:	00803be8 	cmpgeui	r2,zero,239
  803884:	00803be8 	cmpgeui	r2,zero,239
  803888:	00803be8 	cmpgeui	r2,zero,239
  80388c:	00803be8 	cmpgeui	r2,zero,239
  803890:	00803be8 	cmpgeui	r2,zero,239
  803894:	008039a8 	cmpgeui	r2,zero,230
  803898:	00803be8 	cmpgeui	r2,zero,239
  80389c:	00803be8 	cmpgeui	r2,zero,239
  8038a0:	00803be8 	cmpgeui	r2,zero,239
  8038a4:	00803be8 	cmpgeui	r2,zero,239
  8038a8:	0080398c 	andi	r2,zero,230
  8038ac:	b009883a 	mov	r4,r22
  8038b0:	e00b883a 	mov	r5,fp
  8038b4:	080cecc0 	call	80cecc <__ssrefill_r>
  8038b8:	103f561e 	bne	r2,zero,803614 <__alt_data_end+0xff803614>
  8038bc:	b9400017 	ldw	r5,0(r23)
  8038c0:	e1000017 	ldw	r4,0(fp)
  8038c4:	00000206 	br	8038d0 <__ssvfscanf_r+0x618>
  8038c8:	21000044 	addi	r4,r4,1
  8038cc:	e1000015 	stw	r4,0(fp)
  8038d0:	20800003 	ldbu	r2,0(r4)
  8038d4:	2885883a 	add	r2,r5,r2
  8038d8:	10800043 	ldbu	r2,1(r2)
  8038dc:	1080020c 	andi	r2,r2,8
  8038e0:	103f7726 	beq	r2,zero,8036c0 <__alt_data_end+0xff8036c0>
  8038e4:	e0800117 	ldw	r2,4(fp)
  8038e8:	94800044 	addi	r18,r18,1
  8038ec:	10bfffc4 	addi	r2,r2,-1
  8038f0:	e0800115 	stw	r2,4(fp)
  8038f4:	00bff416 	blt	zero,r2,8038c8 <__alt_data_end+0xff8038c8>
  8038f8:	003fec06 	br	8038ac <__alt_data_end+0xff8038ac>
  8038fc:	88803fcc 	andi	r2,r17,255
  803900:	1080201c 	xori	r2,r2,128
  803904:	10bfe004 	addi	r2,r2,-128
  803908:	b085883a 	add	r2,r22,r2
  80390c:	10000d1e 	bne	r2,zero,803944 <__ssvfscanf_r+0x68c>
  803910:	00bf9fc4 	movi	r2,-385
  803914:	98a6703a 	and	r19,r19,r2
  803918:	a1400005 	stb	r5,0(r20)
  80391c:	a5000044 	addi	r20,r20,1
  803920:	e0800117 	ldw	r2,4(fp)
  803924:	843fffc4 	addi	r16,r16,-1
  803928:	94800044 	addi	r18,r18,1
  80392c:	10bfffc4 	addi	r2,r2,-1
  803930:	e0800115 	stw	r2,4(fp)
  803934:	0081300e 	bge	zero,r2,803df8 <__ssvfscanf_r+0xb40>
  803938:	21000044 	addi	r4,r4,1
  80393c:	e1000015 	stw	r4,0(fp)
  803940:	803f801e 	bne	r16,zero,803744 <__alt_data_end+0xff803744>
  803944:	880d883a 	mov	r6,r17
  803948:	b019883a 	mov	r12,r22
  80394c:	a821883a 	mov	r16,r21
  803950:	dc409d17 	ldw	r17,628(sp)
  803954:	182d883a 	mov	r22,r3
  803958:	a8003526 	beq	r21,zero,803a30 <__ssvfscanf_r+0x778>
  80395c:	00025b06 	br	8042cc <__ssvfscanf_r+0x1014>
  803960:	9880400c 	andi	r2,r19,256
  803964:	103fe526 	beq	r2,zero,8038fc <__alt_data_end+0xff8038fc>
  803968:	d980a217 	ldw	r6,648(sp)
  80396c:	00bfdfc4 	movi	r2,-129
  803970:	98a6703a 	and	r19,r19,r2
  803974:	ad400044 	addi	r21,r21,1
  803978:	303fe926 	beq	r6,zero,803920 <__alt_data_end+0xff803920>
  80397c:	31bfffc4 	addi	r6,r6,-1
  803980:	d980a215 	stw	r6,648(sp)
  803984:	84000044 	addi	r16,r16,1
  803988:	003fe506 	br	803920 <__alt_data_end+0xff803920>
  80398c:	88803fcc 	andi	r2,r17,255
  803990:	1080201c 	xori	r2,r2,128
  803994:	10bfe004 	addi	r2,r2,-128
  803998:	018001c4 	movi	r6,7
  80399c:	11bfe91e 	bne	r2,r6,803944 <__alt_data_end+0xff803944>
  8039a0:	04400204 	movi	r17,8
  8039a4:	003fdc06 	br	803918 <__alt_data_end+0xff803918>
  8039a8:	89c03fcc 	andi	r7,r17,255
  8039ac:	39c0201c 	xori	r7,r7,128
  8039b0:	39ffe004 	addi	r7,r7,-128
  8039b4:	00800184 	movi	r2,6
  8039b8:	38bfe21e 	bne	r7,r2,803944 <__alt_data_end+0xff803944>
  8039bc:	044001c4 	movi	r17,7
  8039c0:	003fd506 	br	803918 <__alt_data_end+0xff803918>
  8039c4:	b0013d1e 	bne	r22,zero,803ebc <__ssvfscanf_r+0xc04>
  8039c8:	a800031e 	bne	r21,zero,8039d8 <__ssvfscanf_r+0x720>
  8039cc:	99c1c00c 	andi	r7,r19,1792
  8039d0:	0081c004 	movi	r2,1792
  8039d4:	38836726 	beq	r7,r2,804774 <__ssvfscanf_r+0x14bc>
  8039d8:	88803fcc 	andi	r2,r17,255
  8039dc:	1080201c 	xori	r2,r2,128
  8039e0:	10bfe004 	addi	r2,r2,-128
  8039e4:	01c00044 	movi	r7,1
  8039e8:	11c00226 	beq	r2,r7,8039f4 <__ssvfscanf_r+0x73c>
  8039ec:	01c00104 	movi	r7,4
  8039f0:	11ffd41e 	bne	r2,r7,803944 <__alt_data_end+0xff803944>
  8039f4:	8c400044 	addi	r17,r17,1
  8039f8:	003fc706 	br	803918 <__alt_data_end+0xff803918>
  8039fc:	88803fcc 	andi	r2,r17,255
  803a00:	1080201c 	xori	r2,r2,128
  803a04:	10bfe004 	addi	r2,r2,-128
  803a08:	1001271e 	bne	r2,zero,803ea8 <__ssvfscanf_r+0xbf0>
  803a0c:	a8022a1e 	bne	r21,zero,8042b8 <__ssvfscanf_r+0x1000>
  803a10:	99c1c00c 	andi	r7,r19,1792
  803a14:	0081c004 	movi	r2,1792
  803a18:	38835226 	beq	r7,r2,804764 <__ssvfscanf_r+0x14ac>
  803a1c:	880d883a 	mov	r6,r17
  803a20:	dc409d17 	ldw	r17,628(sp)
  803a24:	b019883a 	mov	r12,r22
  803a28:	a821883a 	mov	r16,r21
  803a2c:	182d883a 	mov	r22,r3
  803a30:	633fffc4 	addi	r12,r12,-1
  803a34:	00800044 	movi	r2,1
  803a38:	1303c52e 	bgeu	r2,r12,804950 <__ssvfscanf_r+0x1698>
  803a3c:	30803fcc 	andi	r2,r6,255
  803a40:	1080201c 	xori	r2,r2,128
  803a44:	10bfe004 	addi	r2,r2,-128
  803a48:	10ffffc4 	addi	r3,r2,-1
  803a4c:	01000184 	movi	r4,6
  803a50:	20c01236 	bltu	r4,r3,803a9c <__ssvfscanf_r+0x7e4>
  803a54:	00c00084 	movi	r3,2
  803a58:	1883c80e 	bge	r3,r2,80497c <__ssvfscanf_r+0x16c4>
  803a5c:	00c000c4 	movi	r3,3
  803a60:	302b883a 	mov	r21,r6
  803a64:	10c00d26 	beq	r2,r3,803a9c <__ssvfscanf_r+0x7e4>
  803a68:	9525c83a 	sub	r18,r18,r20
  803a6c:	a53fffc4 	addi	r20,r20,-1
  803a70:	a1400007 	ldb	r5,0(r20)
  803a74:	e00d883a 	mov	r6,fp
  803a78:	b009883a 	mov	r4,r22
  803a7c:	080cdd40 	call	80cdd4 <_sungetc_r>
  803a80:	a8bfffc4 	addi	r2,r21,-1
  803a84:	10c03fcc 	andi	r3,r2,255
  803a88:	018000c4 	movi	r6,3
  803a8c:	a493883a 	add	r9,r20,r18
  803a90:	102b883a 	mov	r21,r2
  803a94:	30fff536 	bltu	r6,r3,803a6c <__alt_data_end+0xff803a6c>
  803a98:	4825883a 	mov	r18,r9
  803a9c:	9880400c 	andi	r2,r19,256
  803aa0:	10001626 	beq	r2,zero,803afc <__ssvfscanf_r+0x844>
  803aa4:	9881000c 	andi	r2,r19,1024
  803aa8:	10039e1e 	bne	r2,zero,804924 <__ssvfscanf_r+0x166c>
  803aac:	a17fffc7 	ldb	r5,-1(r20)
  803ab0:	00801944 	movi	r2,101
  803ab4:	a0ffffc4 	addi	r3,r20,-1
  803ab8:	957fffc4 	addi	r21,r18,-1
  803abc:	28800826 	beq	r5,r2,803ae0 <__ssvfscanf_r+0x828>
  803ac0:	00801144 	movi	r2,69
  803ac4:	28800626 	beq	r5,r2,803ae0 <__ssvfscanf_r+0x828>
  803ac8:	b009883a 	mov	r4,r22
  803acc:	e00d883a 	mov	r6,fp
  803ad0:	080cdd40 	call	80cdd4 <_sungetc_r>
  803ad4:	a17fff87 	ldb	r5,-2(r20)
  803ad8:	a0ffff84 	addi	r3,r20,-2
  803adc:	957fff84 	addi	r21,r18,-2
  803ae0:	b009883a 	mov	r4,r22
  803ae4:	e00d883a 	mov	r6,fp
  803ae8:	d8c0ab15 	stw	r3,684(sp)
  803aec:	080cdd40 	call	80cdd4 <_sungetc_r>
  803af0:	d8c0ab17 	ldw	r3,684(sp)
  803af4:	a825883a 	mov	r18,r21
  803af8:	1829883a 	mov	r20,r3
  803afc:	9880040c 	andi	r2,r19,16
  803b00:	103e281e 	bne	r2,zero,8033a4 <__alt_data_end+0xff8033a4>
  803b04:	a0000005 	stb	zero,0(r20)
  803b08:	98c1800c 	andi	r3,r19,1536
  803b0c:	00810004 	movi	r2,1024
  803b10:	18831c26 	beq	r3,r2,804784 <__ssvfscanf_r+0x14cc>
  803b14:	d8c0a417 	ldw	r3,656(sp)
  803b18:	1802cf1e 	bne	r3,zero,804658 <__ssvfscanf_r+0x13a0>
  803b1c:	b009883a 	mov	r4,r22
  803b20:	d9400104 	addi	r5,sp,4
  803b24:	000d883a 	mov	r6,zero
  803b28:	080abb00 	call	80abb0 <_strtod_r>
  803b2c:	1029883a 	mov	r20,r2
  803b30:	9880004c 	andi	r2,r19,1
  803b34:	10029926 	beq	r2,zero,80459c <__ssvfscanf_r+0x12e4>
  803b38:	dac09c17 	ldw	r11,624(sp)
  803b3c:	58800017 	ldw	r2,0(r11)
  803b40:	5ac00104 	addi	r11,r11,4
  803b44:	dac09c15 	stw	r11,624(sp)
  803b48:	15000015 	stw	r20,0(r2)
  803b4c:	10c00115 	stw	r3,4(r2)
  803b50:	dac09f17 	ldw	r11,636(sp)
  803b54:	880d883a 	mov	r6,r17
  803b58:	5ac00044 	addi	r11,r11,1
  803b5c:	dac09f15 	stw	r11,636(sp)
  803b60:	003e1106 	br	8033a8 <__alt_data_end+0xff8033a8>
  803b64:	89c03fcc 	andi	r7,r17,255
  803b68:	39c0201c 	xori	r7,r7,128
  803b6c:	39ffe004 	addi	r7,r7,-128
  803b70:	00800084 	movi	r2,2
  803b74:	38bf731e 	bne	r7,r2,803944 <__alt_data_end+0xff803944>
  803b78:	044000c4 	movi	r17,3
  803b7c:	003f6606 	br	803918 <__alt_data_end+0xff803918>
  803b80:	9881400c 	andi	r2,r19,1280
  803b84:	01810004 	movi	r6,1024
  803b88:	11800326 	beq	r2,r6,803b98 <__ssvfscanf_r+0x8e0>
  803b8c:	9984703a 	and	r2,r19,r6
  803b90:	103f6c26 	beq	r2,zero,803944 <__alt_data_end+0xff803944>
  803b94:	a83fa126 	beq	r21,zero,803a1c <__alt_data_end+0xff803a1c>
  803b98:	9880800c 	andi	r2,r19,512
  803b9c:	1000041e 	bne	r2,zero,803bb0 <__ssvfscanf_r+0x8f8>
  803ba0:	d880a017 	ldw	r2,640(sp)
  803ba4:	dd00a515 	stw	r20,660(sp)
  803ba8:	a8abc83a 	sub	r21,r21,r2
  803bac:	dd40a415 	stw	r21,656(sp)
  803bb0:	01be1fc4 	movi	r6,-1921
  803bb4:	99a6703a 	and	r19,r19,r6
  803bb8:	9cc06014 	ori	r19,r19,384
  803bbc:	002b883a 	mov	r21,zero
  803bc0:	003f5506 	br	803918 <__alt_data_end+0xff803918>
  803bc4:	00800044 	movi	r2,1
  803bc8:	b0bf5e1e 	bne	r22,r2,803944 <__alt_data_end+0xff803944>
  803bcc:	05800084 	movi	r22,2
  803bd0:	003f5106 	br	803918 <__alt_data_end+0xff803918>
  803bd4:	9880200c 	andi	r2,r19,128
  803bd8:	103f5a26 	beq	r2,zero,803944 <__alt_data_end+0xff803944>
  803bdc:	00bfdfc4 	movi	r2,-129
  803be0:	98a6703a 	and	r19,r19,r2
  803be4:	003f4c06 	br	803918 <__alt_data_end+0xff803918>
  803be8:	d980a317 	ldw	r6,652(sp)
  803bec:	29c03fcc 	andi	r7,r5,255
  803bf0:	30800003 	ldbu	r2,0(r6)
  803bf4:	38bf531e 	bne	r7,r2,803944 <__alt_data_end+0xff803944>
  803bf8:	9880800c 	andi	r2,r19,512
  803bfc:	103f5126 	beq	r2,zero,803944 <__alt_data_end+0xff803944>
  803c00:	00bf5fc4 	movi	r2,-641
  803c04:	98a6703a 	and	r19,r19,r2
  803c08:	dd40a015 	stw	r21,640(sp)
  803c0c:	003f4206 	br	803918 <__alt_data_end+0xff803918>
  803c10:	88800043 	ldbu	r2,1(r17)
  803c14:	ad4002a4 	muli	r21,r21,10
  803c18:	2823883a 	mov	r17,r5
  803c1c:	89400044 	addi	r5,r17,1
  803c20:	a9ab883a 	add	r21,r21,r6
  803c24:	11803fcc 	andi	r6,r2,255
  803c28:	ad7ff404 	addi	r21,r21,-48
  803c2c:	39bded2e 	bgeu	r7,r6,8033e4 <__alt_data_end+0xff8033e4>
  803c30:	2189883a 	add	r4,r4,r6
  803c34:	20800043 	ldbu	r2,1(r4)
  803c38:	01000044 	movi	r4,1
  803c3c:	2823883a 	mov	r17,r5
  803c40:	108000cc 	andi	r2,r2,3
  803c44:	1102d426 	beq	r2,r4,804798 <__ssvfscanf_r+0x14e0>
  803c48:	00c02074 	movhi	r3,129
  803c4c:	e0800117 	ldw	r2,4(fp)
  803c50:	18f0af04 	addi	r3,r3,-15684
  803c54:	02c00284 	movi	r11,10
  803c58:	d8c0a115 	stw	r3,644(sp)
  803c5c:	dac09e15 	stw	r11,632(sp)
  803c60:	04c000c4 	movi	r19,3
  803c64:	00be9416 	blt	zero,r2,8036b8 <__alt_data_end+0xff8036b8>
  803c68:	b009883a 	mov	r4,r22
  803c6c:	e00b883a 	mov	r5,fp
  803c70:	080cecc0 	call	80cecc <__ssrefill_r>
  803c74:	103e9026 	beq	r2,zero,8036b8 <__alt_data_end+0xff8036b8>
  803c78:	003e6606 	br	803614 <__alt_data_end+0xff803614>
  803c7c:	88800043 	ldbu	r2,1(r17)
  803c80:	84000414 	ori	r16,r16,16
  803c84:	2823883a 	mov	r17,r5
  803c88:	11803fcc 	andi	r6,r2,255
  803c8c:	003dd306 	br	8033dc <__alt_data_end+0xff8033dc>
  803c90:	2823883a 	mov	r17,r5
  803c94:	84000054 	ori	r16,r16,1
  803c98:	00802074 	movhi	r2,129
  803c9c:	10b20504 	addi	r2,r2,-14316
  803ca0:	02c00204 	movi	r11,8
  803ca4:	d880a115 	stw	r2,644(sp)
  803ca8:	dac09e15 	stw	r11,632(sp)
  803cac:	04c000c4 	movi	r19,3
  803cb0:	003e7f06 	br	8036b0 <__alt_data_end+0xff8036b0>
  803cb4:	88800043 	ldbu	r2,1(r17)
  803cb8:	84000094 	ori	r16,r16,2
  803cbc:	2823883a 	mov	r17,r5
  803cc0:	11803fcc 	andi	r6,r2,255
  803cc4:	003dc506 	br	8033dc <__alt_data_end+0xff8033dc>
  803cc8:	2823883a 	mov	r17,r5
  803ccc:	04c00104 	movi	r19,4
  803cd0:	003e7706 	br	8036b0 <__alt_data_end+0xff8036b0>
  803cd4:	2823883a 	mov	r17,r5
  803cd8:	84000054 	ori	r16,r16,1
  803cdc:	00802074 	movhi	r2,129
  803ce0:	10b0af04 	addi	r2,r2,-15684
  803ce4:	02c00284 	movi	r11,10
  803ce8:	d880a115 	stw	r2,644(sp)
  803cec:	dac09e15 	stw	r11,632(sp)
  803cf0:	04c000c4 	movi	r19,3
  803cf4:	003e6e06 	br	8036b0 <__alt_data_end+0xff8036b0>
  803cf8:	00802074 	movhi	r2,129
  803cfc:	10b20504 	addi	r2,r2,-14316
  803d00:	02c00284 	movi	r11,10
  803d04:	2823883a 	mov	r17,r5
  803d08:	d880a115 	stw	r2,644(sp)
  803d0c:	dac09e15 	stw	r11,632(sp)
  803d10:	04c000c4 	movi	r19,3
  803d14:	003e6606 	br	8036b0 <__alt_data_end+0xff8036b0>
  803d18:	2823883a 	mov	r17,r5
  803d1c:	04c00084 	movi	r19,2
  803d20:	003e6306 	br	8036b0 <__alt_data_end+0xff8036b0>
  803d24:	2823883a 	mov	r17,r5
  803d28:	84008814 	ori	r16,r16,544
  803d2c:	00802074 	movhi	r2,129
  803d30:	10b20504 	addi	r2,r2,-14316
  803d34:	02c00404 	movi	r11,16
  803d38:	d880a115 	stw	r2,644(sp)
  803d3c:	dac09e15 	stw	r11,632(sp)
  803d40:	04c000c4 	movi	r19,3
  803d44:	003e5a06 	br	8036b0 <__alt_data_end+0xff8036b0>
  803d48:	2823883a 	mov	r17,r5
  803d4c:	003fd206 	br	803c98 <__alt_data_end+0xff803c98>
  803d50:	8080040c 	andi	r2,r16,16
  803d54:	2823883a 	mov	r17,r5
  803d58:	103d921e 	bne	r2,zero,8033a4 <__alt_data_end+0xff8033a4>
  803d5c:	8080010c 	andi	r2,r16,4
  803d60:	10029426 	beq	r2,zero,8047b4 <__ssvfscanf_r+0x14fc>
  803d64:	dac09c17 	ldw	r11,624(sp)
  803d68:	58800017 	ldw	r2,0(r11)
  803d6c:	5ac00104 	addi	r11,r11,4
  803d70:	dac09c15 	stw	r11,624(sp)
  803d74:	1480000d 	sth	r18,0(r2)
  803d78:	003d8a06 	br	8033a4 <__alt_data_end+0xff8033a4>
  803d7c:	89800043 	ldbu	r6,1(r17)
  803d80:	32828726 	beq	r6,r10,8047a0 <__ssvfscanf_r+0x14e8>
  803d84:	84000054 	ori	r16,r16,1
  803d88:	2823883a 	mov	r17,r5
  803d8c:	003d9306 	br	8033dc <__alt_data_end+0xff8033dc>
  803d90:	88800043 	ldbu	r2,1(r17)
  803d94:	84000114 	ori	r16,r16,4
  803d98:	2823883a 	mov	r17,r5
  803d9c:	11803fcc 	andi	r6,r2,255
  803da0:	003d8e06 	br	8033dc <__alt_data_end+0xff8033dc>
  803da4:	01002074 	movhi	r4,129
  803da8:	2130af04 	addi	r4,r4,-15684
  803dac:	02c00284 	movi	r11,10
  803db0:	2823883a 	mov	r17,r5
  803db4:	d900a115 	stw	r4,644(sp)
  803db8:	dac09e15 	stw	r11,632(sp)
  803dbc:	04c000c4 	movi	r19,3
  803dc0:	003e3b06 	br	8036b0 <__alt_data_end+0xff8036b0>
  803dc4:	2823883a 	mov	r17,r5
  803dc8:	84001014 	ori	r16,r16,64
  803dcc:	0027883a 	mov	r19,zero
  803dd0:	003e3706 	br	8036b0 <__alt_data_end+0xff8036b0>
  803dd4:	d9005884 	addi	r4,sp,354
  803dd8:	080a91c0 	call	80a91c <__sccl>
  803ddc:	1023883a 	mov	r17,r2
  803de0:	84001014 	ori	r16,r16,64
  803de4:	04c00044 	movi	r19,1
  803de8:	003e3106 	br	8036b0 <__alt_data_end+0xff8036b0>
  803dec:	2823883a 	mov	r17,r5
  803df0:	84008014 	ori	r16,r16,512
  803df4:	003fcd06 	br	803d2c <__alt_data_end+0xff803d2c>
  803df8:	1809883a 	mov	r4,r3
  803dfc:	e00b883a 	mov	r5,fp
  803e00:	d8c0ab15 	stw	r3,684(sp)
  803e04:	dac0a615 	stw	r11,664(sp)
  803e08:	080cecc0 	call	80cecc <__ssrefill_r>
  803e0c:	d8c0ab17 	ldw	r3,684(sp)
  803e10:	dac0a617 	ldw	r11,664(sp)
  803e14:	103ecb1e 	bne	r2,zero,803944 <__alt_data_end+0xff803944>
  803e18:	803e4a1e 	bne	r16,zero,803744 <__alt_data_end+0xff803744>
  803e1c:	003ec906 	br	803944 <__alt_data_end+0xff803944>
  803e20:	00800044 	movi	r2,1
  803e24:	9880291e 	bne	r19,r2,803ecc <__ssvfscanf_r+0xc14>
  803e28:	a800011e 	bne	r21,zero,803e30 <__ssvfscanf_r+0xb78>
  803e2c:	057fffc4 	movi	r21,-1
  803e30:	8400040c 	andi	r16,r16,16
  803e34:	80012c26 	beq	r16,zero,8042e8 <__ssvfscanf_r+0x1030>
  803e38:	e1000017 	ldw	r4,0(fp)
  803e3c:	0021883a 	mov	r16,zero
  803e40:	dd005884 	addi	r20,sp,354
  803e44:	20800003 	ldbu	r2,0(r4)
  803e48:	a085883a 	add	r2,r20,r2
  803e4c:	10800007 	ldb	r2,0(r2)
  803e50:	10001126 	beq	r2,zero,803e98 <__ssvfscanf_r+0xbe0>
  803e54:	e0800117 	ldw	r2,4(fp)
  803e58:	21000044 	addi	r4,r4,1
  803e5c:	84000044 	addi	r16,r16,1
  803e60:	10bfffc4 	addi	r2,r2,-1
  803e64:	e0800115 	stw	r2,4(fp)
  803e68:	e1000015 	stw	r4,0(fp)
  803e6c:	ac000b26 	beq	r21,r16,803e9c <__ssvfscanf_r+0xbe4>
  803e70:	00bff416 	blt	zero,r2,803e44 <__alt_data_end+0xff803e44>
  803e74:	b009883a 	mov	r4,r22
  803e78:	e00b883a 	mov	r5,fp
  803e7c:	080cecc0 	call	80cecc <__ssrefill_r>
  803e80:	1000061e 	bne	r2,zero,803e9c <__ssvfscanf_r+0xbe4>
  803e84:	e1000017 	ldw	r4,0(fp)
  803e88:	20800003 	ldbu	r2,0(r4)
  803e8c:	a085883a 	add	r2,r20,r2
  803e90:	10800007 	ldb	r2,0(r2)
  803e94:	103fef1e 	bne	r2,zero,803e54 <__alt_data_end+0xff803e54>
  803e98:	803d4726 	beq	r16,zero,8033b8 <__alt_data_end+0xff8033b8>
  803e9c:	9425883a 	add	r18,r18,r16
  803ea0:	880d883a 	mov	r6,r17
  803ea4:	003d4006 	br	8033a8 <__alt_data_end+0xff8033a8>
  803ea8:	01c000c4 	movi	r7,3
  803eac:	11fed126 	beq	r2,r7,8039f4 <__alt_data_end+0xff8039f4>
  803eb0:	01c00144 	movi	r7,5
  803eb4:	11fecf26 	beq	r2,r7,8039f4 <__alt_data_end+0xff8039f4>
  803eb8:	003ea206 	br	803944 <__alt_data_end+0xff803944>
  803ebc:	00800084 	movi	r2,2
  803ec0:	b0bec51e 	bne	r22,r2,8039d8 <__alt_data_end+0xff8039d8>
  803ec4:	058000c4 	movi	r22,3
  803ec8:	003e9306 	br	803918 <__alt_data_end+0xff803918>
  803ecc:	a800011e 	bne	r21,zero,803ed4 <__ssvfscanf_r+0xc1c>
  803ed0:	05400044 	movi	r21,1
  803ed4:	8080004c 	andi	r2,r16,1
  803ed8:	10017d1e 	bne	r2,zero,8044d0 <__ssvfscanf_r+0x1218>
  803edc:	8400040c 	andi	r16,r16,16
  803ee0:	80020226 	beq	r16,zero,8046ec <__ssvfscanf_r+0x1434>
  803ee4:	0021883a 	mov	r16,zero
  803ee8:	00000906 	br	803f10 <__ssvfscanf_r+0xc58>
  803eec:	e0c00017 	ldw	r3,0(fp)
  803ef0:	b009883a 	mov	r4,r22
  803ef4:	e00b883a 	mov	r5,fp
  803ef8:	1887883a 	add	r3,r3,r2
  803efc:	e0c00015 	stw	r3,0(fp)
  803f00:	80a1883a 	add	r16,r16,r2
  803f04:	a8abc83a 	sub	r21,r21,r2
  803f08:	080cecc0 	call	80cecc <__ssrefill_r>
  803f0c:	1001f41e 	bne	r2,zero,8046e0 <__ssvfscanf_r+0x1428>
  803f10:	e0800117 	ldw	r2,4(fp)
  803f14:	157ff516 	blt	r2,r21,803eec <__alt_data_end+0xff803eec>
  803f18:	e1000017 	ldw	r4,0(fp)
  803f1c:	1545c83a 	sub	r2,r2,r21
  803f20:	ac21883a 	add	r16,r21,r16
  803f24:	2547883a 	add	r3,r4,r21
  803f28:	e0800115 	stw	r2,4(fp)
  803f2c:	e0c00015 	stw	r3,0(fp)
  803f30:	9425883a 	add	r18,r18,r16
  803f34:	003fda06 	br	803ea0 <__alt_data_end+0xff803ea0>
  803f38:	a8bfffc4 	addi	r2,r21,-1
  803f3c:	01005704 	movi	r4,348
  803f40:	2080e72e 	bgeu	r4,r2,8042e0 <__ssvfscanf_r+0x1028>
  803f44:	a9ffa8c4 	addi	r7,r21,-349
  803f48:	05405744 	movi	r21,349
  803f4c:	85036014 	ori	r20,r16,3456
  803f50:	0021883a 	mov	r16,zero
  803f54:	8813883a 	mov	r9,r17
  803f58:	8023883a 	mov	r17,r16
  803f5c:	dc009e17 	ldw	r16,632(sp)
  803f60:	dcc00104 	addi	r19,sp,4
  803f64:	02001344 	movi	r8,77
  803f68:	02808004 	movi	r10,512
  803f6c:	01bf7fc4 	movi	r6,-513
  803f70:	00ffdfc4 	movi	r3,-129
  803f74:	e1000017 	ldw	r4,0(fp)
  803f78:	21400003 	ldbu	r5,0(r4)
  803f7c:	28bff544 	addi	r2,r5,-43
  803f80:	10803fcc 	andi	r2,r2,255
  803f84:	40806336 	bltu	r8,r2,804114 <__ssvfscanf_r+0xe5c>
  803f88:	100490ba 	slli	r2,r2,2
  803f8c:	02c02034 	movhi	r11,128
  803f90:	5acfe804 	addi	r11,r11,16288
  803f94:	12c5883a 	add	r2,r2,r11
  803f98:	10800017 	ldw	r2,0(r2)
  803f9c:	1000683a 	jmp	r2
  803fa0:	0080416c 	andhi	r2,zero,261
  803fa4:	00804114 	movui	r2,260
  803fa8:	0080416c 	andhi	r2,zero,261
  803fac:	00804114 	movui	r2,260
  803fb0:	00804114 	movui	r2,260
  803fb4:	0080419c 	xori	r2,zero,262
  803fb8:	0080417c 	xorhi	r2,zero,261
  803fbc:	0080417c 	xorhi	r2,zero,261
  803fc0:	0080417c 	xorhi	r2,zero,261
  803fc4:	0080417c 	xorhi	r2,zero,261
  803fc8:	0080417c 	xorhi	r2,zero,261
  803fcc:	0080417c 	xorhi	r2,zero,261
  803fd0:	0080417c 	xorhi	r2,zero,261
  803fd4:	00804224 	muli	r2,zero,264
  803fd8:	00804224 	muli	r2,zero,264
  803fdc:	00804114 	movui	r2,260
  803fe0:	00804114 	movui	r2,260
  803fe4:	00804114 	movui	r2,260
  803fe8:	00804114 	movui	r2,260
  803fec:	00804114 	movui	r2,260
  803ff0:	00804114 	movui	r2,260
  803ff4:	00804114 	movui	r2,260
  803ff8:	00804158 	cmpnei	r2,zero,261
  803ffc:	00804158 	cmpnei	r2,zero,261
  804000:	00804158 	cmpnei	r2,zero,261
  804004:	00804158 	cmpnei	r2,zero,261
  804008:	00804158 	cmpnei	r2,zero,261
  80400c:	00804158 	cmpnei	r2,zero,261
  804010:	00804114 	movui	r2,260
  804014:	00804114 	movui	r2,260
  804018:	00804114 	movui	r2,260
  80401c:	00804114 	movui	r2,260
  804020:	00804114 	movui	r2,260
  804024:	00804114 	movui	r2,260
  804028:	00804114 	movui	r2,260
  80402c:	00804114 	movui	r2,260
  804030:	00804114 	movui	r2,260
  804034:	00804114 	movui	r2,260
  804038:	00804114 	movui	r2,260
  80403c:	00804114 	movui	r2,260
  804040:	00804114 	movui	r2,260
  804044:	00804114 	movui	r2,260
  804048:	00804114 	movui	r2,260
  80404c:	00804114 	movui	r2,260
  804050:	00804114 	movui	r2,260
  804054:	008040d8 	cmpnei	r2,zero,259
  804058:	00804114 	movui	r2,260
  80405c:	00804114 	movui	r2,260
  804060:	00804114 	movui	r2,260
  804064:	00804114 	movui	r2,260
  804068:	00804114 	movui	r2,260
  80406c:	00804114 	movui	r2,260
  804070:	00804114 	movui	r2,260
  804074:	00804114 	movui	r2,260
  804078:	00804158 	cmpnei	r2,zero,261
  80407c:	00804158 	cmpnei	r2,zero,261
  804080:	00804158 	cmpnei	r2,zero,261
  804084:	00804158 	cmpnei	r2,zero,261
  804088:	00804158 	cmpnei	r2,zero,261
  80408c:	00804158 	cmpnei	r2,zero,261
  804090:	00804114 	movui	r2,260
  804094:	00804114 	movui	r2,260
  804098:	00804114 	movui	r2,260
  80409c:	00804114 	movui	r2,260
  8040a0:	00804114 	movui	r2,260
  8040a4:	00804114 	movui	r2,260
  8040a8:	00804114 	movui	r2,260
  8040ac:	00804114 	movui	r2,260
  8040b0:	00804114 	movui	r2,260
  8040b4:	00804114 	movui	r2,260
  8040b8:	00804114 	movui	r2,260
  8040bc:	00804114 	movui	r2,260
  8040c0:	00804114 	movui	r2,260
  8040c4:	00804114 	movui	r2,260
  8040c8:	00804114 	movui	r2,260
  8040cc:	00804114 	movui	r2,260
  8040d0:	00804114 	movui	r2,260
  8040d4:	008040d8 	cmpnei	r2,zero,259
  8040d8:	a081800c 	andi	r2,r20,1536
  8040dc:	12800d1e 	bne	r2,r10,804114 <__ssvfscanf_r+0xe5c>
  8040e0:	a1a8703a 	and	r20,r20,r6
  8040e4:	a5014014 	ori	r20,r20,1280
  8040e8:	04000404 	movi	r16,16
  8040ec:	e0800117 	ldw	r2,4(fp)
  8040f0:	99400005 	stb	r5,0(r19)
  8040f4:	9cc00044 	addi	r19,r19,1
  8040f8:	10bfffc4 	addi	r2,r2,-1
  8040fc:	e0800115 	stw	r2,4(fp)
  804100:	0080370e 	bge	zero,r2,8041e0 <__ssvfscanf_r+0xf28>
  804104:	21000044 	addi	r4,r4,1
  804108:	e1000015 	stw	r4,0(fp)
  80410c:	ad7fffc4 	addi	r21,r21,-1
  804110:	a83f981e 	bne	r21,zero,803f74 <__alt_data_end+0xff803f74>
  804114:	dc009e15 	stw	r16,632(sp)
  804118:	a080400c 	andi	r2,r20,256
  80411c:	8821883a 	mov	r16,r17
  804120:	4823883a 	mov	r17,r9
  804124:	10000426 	beq	r2,zero,804138 <__ssvfscanf_r+0xe80>
  804128:	d8800104 	addi	r2,sp,4
  80412c:	14c18736 	bltu	r2,r19,80474c <__ssvfscanf_r+0x1494>
  804130:	d8c00104 	addi	r3,sp,4
  804134:	1cfca026 	beq	r3,r19,8033b8 <__alt_data_end+0xff8033b8>
  804138:	a080040c 	andi	r2,r20,16
  80413c:	1000d226 	beq	r2,zero,804488 <__ssvfscanf_r+0x11d0>
  804140:	d8800104 	addi	r2,sp,4
  804144:	98a7c83a 	sub	r19,r19,r2
  804148:	9c27883a 	add	r19,r19,r16
  80414c:	94e5883a 	add	r18,r18,r19
  804150:	880d883a 	mov	r6,r17
  804154:	003c9406 	br	8033a8 <__alt_data_end+0xff8033a8>
  804158:	00800284 	movi	r2,10
  80415c:	143fed0e 	bge	r2,r16,804114 <__alt_data_end+0xff804114>
  804160:	00bd1fc4 	movi	r2,-2945
  804164:	a0a8703a 	and	r20,r20,r2
  804168:	003fe006 	br	8040ec <__alt_data_end+0xff8040ec>
  80416c:	a080200c 	andi	r2,r20,128
  804170:	103fe826 	beq	r2,zero,804114 <__alt_data_end+0xff804114>
  804174:	a0e8703a 	and	r20,r20,r3
  804178:	003fdc06 	br	8040ec <__alt_data_end+0xff8040ec>
  80417c:	02c020b4 	movhi	r11,130
  804180:	8421883a 	add	r16,r16,r16
  804184:	5aedb884 	addi	r11,r11,-18718
  804188:	5c05883a 	add	r2,r11,r16
  80418c:	1400000f 	ldh	r16,0(r2)
  804190:	00bd1fc4 	movi	r2,-2945
  804194:	a0a8703a 	and	r20,r20,r2
  804198:	003fd406 	br	8040ec <__alt_data_end+0xff8040ec>
  80419c:	a082000c 	andi	r2,r20,2048
  8041a0:	103fd226 	beq	r2,zero,8040ec <__alt_data_end+0xff8040ec>
  8041a4:	8000021e 	bne	r16,zero,8041b0 <__ssvfscanf_r+0xef8>
  8041a8:	a5008014 	ori	r20,r20,512
  8041ac:	04000204 	movi	r16,8
  8041b0:	a081000c 	andi	r2,r20,1024
  8041b4:	10010c1e 	bne	r2,zero,8045e8 <__ssvfscanf_r+0x1330>
  8041b8:	00bf1fc4 	movi	r2,-897
  8041bc:	a0a8703a 	and	r20,r20,r2
  8041c0:	38000226 	beq	r7,zero,8041cc <__ssvfscanf_r+0xf14>
  8041c4:	39ffffc4 	addi	r7,r7,-1
  8041c8:	ad400044 	addi	r21,r21,1
  8041cc:	e0800117 	ldw	r2,4(fp)
  8041d0:	8c400044 	addi	r17,r17,1
  8041d4:	10bfffc4 	addi	r2,r2,-1
  8041d8:	e0800115 	stw	r2,4(fp)
  8041dc:	00bfc916 	blt	zero,r2,804104 <__alt_data_end+0xff804104>
  8041e0:	b009883a 	mov	r4,r22
  8041e4:	e00b883a 	mov	r5,fp
  8041e8:	d8c0ab15 	stw	r3,684(sp)
  8041ec:	d980a815 	stw	r6,672(sp)
  8041f0:	d9c0a915 	stw	r7,676(sp)
  8041f4:	da00a615 	stw	r8,664(sp)
  8041f8:	da40aa15 	stw	r9,680(sp)
  8041fc:	da80a715 	stw	r10,668(sp)
  804200:	080cecc0 	call	80cecc <__ssrefill_r>
  804204:	d8c0ab17 	ldw	r3,684(sp)
  804208:	d980a817 	ldw	r6,672(sp)
  80420c:	d9c0a917 	ldw	r7,676(sp)
  804210:	da00a617 	ldw	r8,664(sp)
  804214:	da40aa17 	ldw	r9,680(sp)
  804218:	da80a717 	ldw	r10,668(sp)
  80421c:	103fbb26 	beq	r2,zero,80410c <__alt_data_end+0xff80410c>
  804220:	003fbc06 	br	804114 <__alt_data_end+0xff804114>
  804224:	02c020b4 	movhi	r11,130
  804228:	8421883a 	add	r16,r16,r16
  80422c:	5aedb884 	addi	r11,r11,-18718
  804230:	5c05883a 	add	r2,r11,r16
  804234:	1400000f 	ldh	r16,0(r2)
  804238:	00800204 	movi	r2,8
  80423c:	143fc816 	blt	r2,r16,804160 <__alt_data_end+0xff804160>
  804240:	003fb406 	br	804114 <__alt_data_end+0xff804114>
  804244:	a800011e 	bne	r21,zero,80424c <__ssvfscanf_r+0xf94>
  804248:	057fffc4 	movi	r21,-1
  80424c:	8080004c 	andi	r2,r16,1
  804250:	10006f1e 	bne	r2,zero,804410 <__ssvfscanf_r+0x1158>
  804254:	8400040c 	andi	r16,r16,16
  804258:	80004526 	beq	r16,zero,804370 <__ssvfscanf_r+0x10b8>
  80425c:	b9400017 	ldw	r5,0(r23)
  804260:	e1000017 	ldw	r4,0(fp)
  804264:	0021883a 	mov	r16,zero
  804268:	20800003 	ldbu	r2,0(r4)
  80426c:	2885883a 	add	r2,r5,r2
  804270:	10800043 	ldbu	r2,1(r2)
  804274:	1080020c 	andi	r2,r2,8
  804278:	103f081e 	bne	r2,zero,803e9c <__alt_data_end+0xff803e9c>
  80427c:	e0800117 	ldw	r2,4(fp)
  804280:	21000044 	addi	r4,r4,1
  804284:	84000044 	addi	r16,r16,1
  804288:	10bfffc4 	addi	r2,r2,-1
  80428c:	e0800115 	stw	r2,4(fp)
  804290:	e1000015 	stw	r4,0(fp)
  804294:	ac3f0126 	beq	r21,r16,803e9c <__alt_data_end+0xff803e9c>
  804298:	00bff316 	blt	zero,r2,804268 <__alt_data_end+0xff804268>
  80429c:	b009883a 	mov	r4,r22
  8042a0:	e00b883a 	mov	r5,fp
  8042a4:	080cecc0 	call	80cecc <__ssrefill_r>
  8042a8:	103efc1e 	bne	r2,zero,803e9c <__alt_data_end+0xff803e9c>
  8042ac:	b9400017 	ldw	r5,0(r23)
  8042b0:	e1000017 	ldw	r4,0(fp)
  8042b4:	003fec06 	br	804268 <__alt_data_end+0xff804268>
  8042b8:	880d883a 	mov	r6,r17
  8042bc:	dc409d17 	ldw	r17,628(sp)
  8042c0:	b019883a 	mov	r12,r22
  8042c4:	a821883a 	mov	r16,r21
  8042c8:	182d883a 	mov	r22,r3
  8042cc:	00bfbfc4 	movi	r2,-257
  8042d0:	98a6703a 	and	r19,r19,r2
  8042d4:	003dd606 	br	803a30 <__alt_data_end+0xff803a30>
  8042d8:	d800a215 	stw	zero,648(sp)
  8042dc:	003d0906 	br	803704 <__alt_data_end+0xff803704>
  8042e0:	000f883a 	mov	r7,zero
  8042e4:	003f1906 	br	803f4c <__alt_data_end+0xff803f4c>
  8042e8:	dac09c17 	ldw	r11,624(sp)
  8042ec:	a8ffffc4 	addi	r3,r21,-1
  8042f0:	dd005884 	addi	r20,sp,354
  8042f4:	5c000017 	ldw	r16,0(r11)
  8042f8:	59800104 	addi	r6,r11,4
  8042fc:	d9809c15 	stw	r6,624(sp)
  804300:	800b883a 	mov	r5,r16
  804304:	80eb883a 	add	r21,r16,r3
  804308:	00000106 	br	804310 <__ssvfscanf_r+0x1058>
  80430c:	980b883a 	mov	r5,r19
  804310:	e0c00017 	ldw	r3,0(fp)
  804314:	280d883a 	mov	r6,r5
  804318:	18800003 	ldbu	r2,0(r3)
  80431c:	a085883a 	add	r2,r20,r2
  804320:	10800007 	ldb	r2,0(r2)
  804324:	1000ec26 	beq	r2,zero,8046d8 <__ssvfscanf_r+0x1420>
  804328:	e0800117 	ldw	r2,4(fp)
  80432c:	19c00044 	addi	r7,r3,1
  804330:	e1c00015 	stw	r7,0(fp)
  804334:	10bfffc4 	addi	r2,r2,-1
  804338:	e0800115 	stw	r2,4(fp)
  80433c:	18800003 	ldbu	r2,0(r3)
  804340:	34c00044 	addi	r19,r6,1
  804344:	28800005 	stb	r2,0(r5)
  804348:	3540da26 	beq	r6,r21,8046b4 <__ssvfscanf_r+0x13fc>
  80434c:	e0800117 	ldw	r2,4(fp)
  804350:	00bfee16 	blt	zero,r2,80430c <__alt_data_end+0xff80430c>
  804354:	b009883a 	mov	r4,r22
  804358:	e00b883a 	mov	r5,fp
  80435c:	080cecc0 	call	80cecc <__ssrefill_r>
  804360:	103fea26 	beq	r2,zero,80430c <__alt_data_end+0xff80430c>
  804364:	9809883a 	mov	r4,r19
  804368:	84c0d31e 	bne	r16,r19,8046b8 <__ssvfscanf_r+0x1400>
  80436c:	003ca906 	br	803614 <__alt_data_end+0xff803614>
  804370:	dac09c17 	ldw	r11,624(sp)
  804374:	a8ffffc4 	addi	r3,r21,-1
  804378:	5cc00017 	ldw	r19,0(r11)
  80437c:	59800104 	addi	r6,r11,4
  804380:	d9809c15 	stw	r6,624(sp)
  804384:	98e9883a 	add	r20,r19,r3
  804388:	980b883a 	mov	r5,r19
  80438c:	00000106 	br	804394 <__ssvfscanf_r+0x10dc>
  804390:	a80b883a 	mov	r5,r21
  804394:	e0c00017 	ldw	r3,0(fp)
  804398:	b9800017 	ldw	r6,0(r23)
  80439c:	18800003 	ldbu	r2,0(r3)
  8043a0:	3085883a 	add	r2,r6,r2
  8043a4:	10800043 	ldbu	r2,1(r2)
  8043a8:	1080020c 	andi	r2,r2,8
  8043ac:	1000e01e 	bne	r2,zero,804730 <__ssvfscanf_r+0x1478>
  8043b0:	e0800117 	ldw	r2,4(fp)
  8043b4:	19800044 	addi	r6,r3,1
  8043b8:	e1800015 	stw	r6,0(fp)
  8043bc:	10bfffc4 	addi	r2,r2,-1
  8043c0:	e0800115 	stw	r2,4(fp)
  8043c4:	18800003 	ldbu	r2,0(r3)
  8043c8:	2d400044 	addi	r21,r5,1
  8043cc:	a821883a 	mov	r16,r21
  8043d0:	28800005 	stb	r2,0(r5)
  8043d4:	2d000626 	beq	r5,r20,8043f0 <__ssvfscanf_r+0x1138>
  8043d8:	e0800117 	ldw	r2,4(fp)
  8043dc:	00bfec16 	blt	zero,r2,804390 <__alt_data_end+0xff804390>
  8043e0:	b009883a 	mov	r4,r22
  8043e4:	e00b883a 	mov	r5,fp
  8043e8:	080cecc0 	call	80cecc <__ssrefill_r>
  8043ec:	103fe826 	beq	r2,zero,804390 <__alt_data_end+0xff804390>
  8043f0:	dac09f17 	ldw	r11,636(sp)
  8043f4:	84e7c83a 	sub	r19,r16,r19
  8043f8:	80000005 	stb	zero,0(r16)
  8043fc:	5ac00044 	addi	r11,r11,1
  804400:	94e5883a 	add	r18,r18,r19
  804404:	dac09f15 	stw	r11,636(sp)
  804408:	880d883a 	mov	r6,r17
  80440c:	003be606 	br	8033a8 <__alt_data_end+0xff8033a8>
  804410:	d8c09904 	addi	r3,sp,612
  804414:	8400040c 	andi	r16,r16,16
  804418:	1809883a 	mov	r4,r3
  80441c:	000b883a 	mov	r5,zero
  804420:	01800204 	movi	r6,8
  804424:	d8c09d15 	stw	r3,628(sp)
  804428:	0802a600 	call	802a60 <memset>
  80442c:	80007126 	beq	r16,zero,8045f4 <__ssvfscanf_r+0x133c>
  804430:	dcc09b04 	addi	r19,sp,620
  804434:	0007883a 	mov	r3,zero
  804438:	dc40a015 	stw	r17,640(sp)
  80443c:	8023883a 	mov	r17,r16
  804440:	1821883a 	mov	r16,r3
  804444:	e0800017 	ldw	r2,0(fp)
  804448:	b8c00017 	ldw	r3,0(r23)
  80444c:	10800003 	ldbu	r2,0(r2)
  804450:	1885883a 	add	r2,r3,r2
  804454:	10800043 	ldbu	r2,1(r2)
  804458:	1080020c 	andi	r2,r2,8
  80445c:	1000011e 	bne	r2,zero,804464 <__ssvfscanf_r+0x11ac>
  804460:	a800ff1e 	bne	r21,zero,804860 <__ssvfscanf_r+0x15a8>
  804464:	8821883a 	mov	r16,r17
  804468:	dc40a017 	ldw	r17,640(sp)
  80446c:	803bcd1e 	bne	r16,zero,8033a4 <__alt_data_end+0xff8033a4>
  804470:	dac09f17 	ldw	r11,636(sp)
  804474:	98000015 	stw	zero,0(r19)
  804478:	880d883a 	mov	r6,r17
  80447c:	5ac00044 	addi	r11,r11,1
  804480:	dac09f15 	stw	r11,636(sp)
  804484:	003bc806 	br	8033a8 <__alt_data_end+0xff8033a8>
  804488:	d9c09e17 	ldw	r7,632(sp)
  80448c:	dac0a117 	ldw	r11,644(sp)
  804490:	b009883a 	mov	r4,r22
  804494:	d9400104 	addi	r5,sp,4
  804498:	000d883a 	mov	r6,zero
  80449c:	98000005 	stb	zero,0(r19)
  8044a0:	583ee83a 	callr	r11
  8044a4:	a0c0080c 	andi	r3,r20,32
  8044a8:	18006326 	beq	r3,zero,804638 <__ssvfscanf_r+0x1380>
  8044ac:	dac09c17 	ldw	r11,624(sp)
  8044b0:	58c00017 	ldw	r3,0(r11)
  8044b4:	5ac00104 	addi	r11,r11,4
  8044b8:	dac09c15 	stw	r11,624(sp)
  8044bc:	18800015 	stw	r2,0(r3)
  8044c0:	dac09f17 	ldw	r11,636(sp)
  8044c4:	5ac00044 	addi	r11,r11,1
  8044c8:	dac09f15 	stw	r11,636(sp)
  8044cc:	003f1c06 	br	804140 <__alt_data_end+0xff804140>
  8044d0:	d8c09904 	addi	r3,sp,612
  8044d4:	8400040c 	andi	r16,r16,16
  8044d8:	1809883a 	mov	r4,r3
  8044dc:	000b883a 	mov	r5,zero
  8044e0:	01800204 	movi	r6,8
  8044e4:	dc00a015 	stw	r16,640(sp)
  8044e8:	d8c09d15 	stw	r3,628(sp)
  8044ec:	0802a600 	call	802a60 <memset>
  8044f0:	dc00a017 	ldw	r16,640(sp)
  8044f4:	80004b26 	beq	r16,zero,804624 <__ssvfscanf_r+0x136c>
  8044f8:	0027883a 	mov	r19,zero
  8044fc:	dc00a017 	ldw	r16,640(sp)
  804500:	0029883a 	mov	r20,zero
  804504:	dc40a215 	stw	r17,648(sp)
  804508:	0808b840 	call	808b84 <__locale_mb_cur_max>
  80450c:	153c4126 	beq	r2,r20,803614 <__alt_data_end+0xff803614>
  804510:	e0800017 	ldw	r2,0(fp)
  804514:	e1000117 	ldw	r4,4(fp)
  804518:	dac09d17 	ldw	r11,628(sp)
  80451c:	12400003 	ldbu	r9,0(r2)
  804520:	213fffc4 	addi	r4,r4,-1
  804524:	10800044 	addi	r2,r2,1
  804528:	d8c00104 	addi	r3,sp,4
  80452c:	e1000115 	stw	r4,4(fp)
  804530:	e0800015 	stw	r2,0(fp)
  804534:	a4400044 	addi	r17,r20,1
  804538:	dac00015 	stw	r11,0(sp)
  80453c:	1d29883a 	add	r20,r3,r20
  804540:	180d883a 	mov	r6,r3
  804544:	b009883a 	mov	r4,r22
  804548:	980b883a 	mov	r5,r19
  80454c:	880f883a 	mov	r7,r17
  804550:	a2400005 	stb	r9,0(r20)
  804554:	0808c380 	call	808c38 <_mbrtowc_r>
  804558:	00ffffc4 	movi	r3,-1
  80455c:	10fc2d26 	beq	r2,r3,803614 <__alt_data_end+0xff803614>
  804560:	10004e1e 	bne	r2,zero,80469c <__ssvfscanf_r+0x13e4>
  804564:	8000011e 	bne	r16,zero,80456c <__ssvfscanf_r+0x12b4>
  804568:	98000015 	stw	zero,0(r19)
  80456c:	9465883a 	add	r18,r18,r17
  804570:	ad7fffc4 	addi	r21,r21,-1
  804574:	80004d1e 	bne	r16,zero,8046ac <__ssvfscanf_r+0x13f4>
  804578:	9cc00104 	addi	r19,r19,4
  80457c:	0029883a 	mov	r20,zero
  804580:	e0800117 	ldw	r2,4(fp)
  804584:	0080200e 	bge	zero,r2,804608 <__ssvfscanf_r+0x1350>
  804588:	a83fdf1e 	bne	r21,zero,804508 <__alt_data_end+0xff804508>
  80458c:	dc40a217 	ldw	r17,648(sp)
  804590:	dac0a017 	ldw	r11,640(sp)
  804594:	583d6e26 	beq	r11,zero,803b50 <__alt_data_end+0xff803b50>
  804598:	003b8206 	br	8033a4 <__alt_data_end+0xff8033a4>
  80459c:	9a80008c 	andi	r10,r19,2
  8045a0:	503d651e 	bne	r10,zero,803b38 <__alt_data_end+0xff803b38>
  8045a4:	dac09c17 	ldw	r11,624(sp)
  8045a8:	180b883a 	mov	r5,r3
  8045ac:	a009883a 	mov	r4,r20
  8045b0:	5cc00017 	ldw	r19,0(r11)
  8045b4:	5c000104 	addi	r16,r11,4
  8045b8:	d8c0ab15 	stw	r3,684(sp)
  8045bc:	080a8a80 	call	80a8a8 <__fpclassifyd>
  8045c0:	d8c0ab17 	ldw	r3,684(sp)
  8045c4:	1000a126 	beq	r2,zero,80484c <__ssvfscanf_r+0x1594>
  8045c8:	a009883a 	mov	r4,r20
  8045cc:	180b883a 	mov	r5,r3
  8045d0:	081707c0 	call	81707c <__truncdfsf2>
  8045d4:	98800015 	stw	r2,0(r19)
  8045d8:	dc009c15 	stw	r16,624(sp)
  8045dc:	003d5c06 	br	803b50 <__alt_data_end+0xff803b50>
  8045e0:	5805883a 	mov	r2,r11
  8045e4:	003c1106 	br	80362c <__alt_data_end+0xff80362c>
  8045e8:	00be9fc4 	movi	r2,-1409
  8045ec:	a0a8703a 	and	r20,r20,r2
  8045f0:	003ebe06 	br	8040ec <__alt_data_end+0xff8040ec>
  8045f4:	dac09c17 	ldw	r11,624(sp)
  8045f8:	5cc00017 	ldw	r19,0(r11)
  8045fc:	5ac00104 	addi	r11,r11,4
  804600:	dac09c15 	stw	r11,624(sp)
  804604:	003f8b06 	br	804434 <__alt_data_end+0xff804434>
  804608:	b009883a 	mov	r4,r22
  80460c:	e00b883a 	mov	r5,fp
  804610:	080cecc0 	call	80cecc <__ssrefill_r>
  804614:	103fdc26 	beq	r2,zero,804588 <__alt_data_end+0xff804588>
  804618:	dc40a217 	ldw	r17,648(sp)
  80461c:	a03fdc26 	beq	r20,zero,804590 <__alt_data_end+0xff804590>
  804620:	003bfc06 	br	803614 <__alt_data_end+0xff803614>
  804624:	dac09c17 	ldw	r11,624(sp)
  804628:	5cc00017 	ldw	r19,0(r11)
  80462c:	5ac00104 	addi	r11,r11,4
  804630:	dac09c15 	stw	r11,624(sp)
  804634:	003fb106 	br	8044fc <__alt_data_end+0xff8044fc>
  804638:	a0c0010c 	andi	r3,r20,4
  80463c:	18006f26 	beq	r3,zero,8047fc <__ssvfscanf_r+0x1544>
  804640:	dac09c17 	ldw	r11,624(sp)
  804644:	58c00017 	ldw	r3,0(r11)
  804648:	5ac00104 	addi	r11,r11,4
  80464c:	dac09c15 	stw	r11,624(sp)
  804650:	1880000d 	sth	r2,0(r3)
  804654:	003f9a06 	br	8044c0 <__alt_data_end+0xff8044c0>
  804658:	dac0a517 	ldw	r11,660(sp)
  80465c:	000d883a 	mov	r6,zero
  804660:	b009883a 	mov	r4,r22
  804664:	59400044 	addi	r5,r11,1
  804668:	01c00284 	movi	r7,10
  80466c:	080c2bc0 	call	80c2bc <_strtol_r>
  804670:	d8c0a417 	ldw	r3,656(sp)
  804674:	dd00a517 	ldw	r20,660(sp)
  804678:	10cdc83a 	sub	r6,r2,r3
  80467c:	d88055c4 	addi	r2,sp,343
  804680:	a0800136 	bltu	r20,r2,804688 <__ssvfscanf_r+0x13d0>
  804684:	dd005584 	addi	r20,sp,342
  804688:	014020b4 	movhi	r5,130
  80468c:	296db704 	addi	r5,r5,-18724
  804690:	a009883a 	mov	r4,r20
  804694:	080aa3c0 	call	80aa3c <sprintf>
  804698:	003d2006 	br	803b1c <__alt_data_end+0xff803b1c>
  80469c:	013fff84 	movi	r4,-2
  8046a0:	113fb21e 	bne	r2,r4,80456c <__alt_data_end+0xff80456c>
  8046a4:	8829883a 	mov	r20,r17
  8046a8:	003fb506 	br	804580 <__alt_data_end+0xff804580>
  8046ac:	0029883a 	mov	r20,zero
  8046b0:	003fb306 	br	804580 <__alt_data_end+0xff804580>
  8046b4:	9809883a 	mov	r4,r19
  8046b8:	2421c83a 	sub	r16,r4,r16
  8046bc:	803b3e26 	beq	r16,zero,8033b8 <__alt_data_end+0xff8033b8>
  8046c0:	dac09f17 	ldw	r11,636(sp)
  8046c4:	20000005 	stb	zero,0(r4)
  8046c8:	9425883a 	add	r18,r18,r16
  8046cc:	5ac00044 	addi	r11,r11,1
  8046d0:	dac09f15 	stw	r11,636(sp)
  8046d4:	003df206 	br	803ea0 <__alt_data_end+0xff803ea0>
  8046d8:	2809883a 	mov	r4,r5
  8046dc:	003ff606 	br	8046b8 <__alt_data_end+0xff8046b8>
  8046e0:	803bcc26 	beq	r16,zero,803614 <__alt_data_end+0xff803614>
  8046e4:	9425883a 	add	r18,r18,r16
  8046e8:	003ded06 	br	803ea0 <__alt_data_end+0xff803ea0>
  8046ec:	dac09c17 	ldw	r11,624(sp)
  8046f0:	df000015 	stw	fp,0(sp)
  8046f4:	b009883a 	mov	r4,r22
  8046f8:	59400017 	ldw	r5,0(r11)
  8046fc:	01800044 	movi	r6,1
  804700:	a80f883a 	mov	r7,r21
  804704:	080cf3c0 	call	80cf3c <_sfread_r>
  804708:	dac09c17 	ldw	r11,624(sp)
  80470c:	58c00104 	addi	r3,r11,4
  804710:	103bc026 	beq	r2,zero,803614 <__alt_data_end+0xff803614>
  804714:	dac09f17 	ldw	r11,636(sp)
  804718:	14a5883a 	add	r18,r2,r18
  80471c:	d8c09c15 	stw	r3,624(sp)
  804720:	5ac00044 	addi	r11,r11,1
  804724:	dac09f15 	stw	r11,636(sp)
  804728:	880d883a 	mov	r6,r17
  80472c:	003b1e06 	br	8033a8 <__alt_data_end+0xff8033a8>
  804730:	2821883a 	mov	r16,r5
  804734:	003f2e06 	br	8043f0 <__alt_data_end+0xff8043f0>
  804738:	b009883a 	mov	r4,r22
  80473c:	e00b883a 	mov	r5,fp
  804740:	080cecc0 	call	80cecc <__ssrefill_r>
  804744:	103bc826 	beq	r2,zero,803668 <__alt_data_end+0xff803668>
  804748:	003bb206 	br	803614 <__alt_data_end+0xff803614>
  80474c:	997fffc7 	ldb	r5,-1(r19)
  804750:	b009883a 	mov	r4,r22
  804754:	e00d883a 	mov	r6,fp
  804758:	9cffffc4 	addi	r19,r19,-1
  80475c:	080cdd40 	call	80cdd4 <_sungetc_r>
  804760:	003e7306 	br	804130 <__alt_data_end+0xff804130>
  804764:	01be1fc4 	movi	r6,-1921
  804768:	99a6703a 	and	r19,r19,r6
  80476c:	04400044 	movi	r17,1
  804770:	003c6906 	br	803918 <__alt_data_end+0xff803918>
  804774:	00be1fc4 	movi	r2,-1921
  804778:	98a6703a 	and	r19,r19,r2
  80477c:	05800044 	movi	r22,1
  804780:	003c6506 	br	803918 <__alt_data_end+0xff803918>
  804784:	dac0a017 	ldw	r11,640(sp)
  804788:	82e1c83a 	sub	r16,r16,r11
  80478c:	040dc83a 	sub	r6,zero,r16
  804790:	803fba1e 	bne	r16,zero,80467c <__alt_data_end+0xff80467c>
  804794:	003ce106 	br	803b1c <__alt_data_end+0xff803b1c>
  804798:	8120b03a 	or	r16,r16,r4
  80479c:	003d4f06 	br	803cdc <__alt_data_end+0xff803cdc>
  8047a0:	88800083 	ldbu	r2,2(r17)
  8047a4:	84000094 	ori	r16,r16,2
  8047a8:	8c400084 	addi	r17,r17,2
  8047ac:	11803fcc 	andi	r6,r2,255
  8047b0:	003b0a06 	br	8033dc <__alt_data_end+0xff8033dc>
  8047b4:	8080004c 	andi	r2,r16,1
  8047b8:	10000a1e 	bne	r2,zero,8047e4 <__ssvfscanf_r+0x152c>
  8047bc:	8400008c 	andi	r16,r16,2
  8047c0:	80000826 	beq	r16,zero,8047e4 <__ssvfscanf_r+0x152c>
  8047c4:	dac09c17 	ldw	r11,624(sp)
  8047c8:	9007d7fa 	srai	r3,r18,31
  8047cc:	58800017 	ldw	r2,0(r11)
  8047d0:	5ac00104 	addi	r11,r11,4
  8047d4:	dac09c15 	stw	r11,624(sp)
  8047d8:	14800015 	stw	r18,0(r2)
  8047dc:	10c00115 	stw	r3,4(r2)
  8047e0:	003af006 	br	8033a4 <__alt_data_end+0xff8033a4>
  8047e4:	dac09c17 	ldw	r11,624(sp)
  8047e8:	58800017 	ldw	r2,0(r11)
  8047ec:	5ac00104 	addi	r11,r11,4
  8047f0:	dac09c15 	stw	r11,624(sp)
  8047f4:	14800015 	stw	r18,0(r2)
  8047f8:	003aea06 	br	8033a4 <__alt_data_end+0xff8033a4>
  8047fc:	a0c0004c 	andi	r3,r20,1
  804800:	183f2a1e 	bne	r3,zero,8044ac <__alt_data_end+0xff8044ac>
  804804:	a500008c 	andi	r20,r20,2
  804808:	a03f2826 	beq	r20,zero,8044ac <__alt_data_end+0xff8044ac>
  80480c:	dac0a117 	ldw	r11,644(sp)
  804810:	00802074 	movhi	r2,129
  804814:	10b20504 	addi	r2,r2,-14316
  804818:	b009883a 	mov	r4,r22
  80481c:	d9400104 	addi	r5,sp,4
  804820:	000d883a 	mov	r6,zero
  804824:	d9c09e17 	ldw	r7,632(sp)
  804828:	58805f26 	beq	r11,r2,8049a8 <__ssvfscanf_r+0x16f0>
  80482c:	080c5200 	call	80c520 <_strtoll_r>
  804830:	dac09c17 	ldw	r11,624(sp)
  804834:	59000017 	ldw	r4,0(r11)
  804838:	5ac00104 	addi	r11,r11,4
  80483c:	dac09c15 	stw	r11,624(sp)
  804840:	20800015 	stw	r2,0(r4)
  804844:	20c00115 	stw	r3,4(r4)
  804848:	003f1d06 	br	8044c0 <__alt_data_end+0xff8044c0>
  80484c:	0009883a 	mov	r4,zero
  804850:	080a9dc0 	call	80a9dc <nanf>
  804854:	98800015 	stw	r2,0(r19)
  804858:	dc009c15 	stw	r16,624(sp)
  80485c:	003cbc06 	br	803b50 <__alt_data_end+0xff803b50>
  804860:	0808b840 	call	808b84 <__locale_mb_cur_max>
  804864:	143b6b26 	beq	r2,r16,803614 <__alt_data_end+0xff803614>
  804868:	e0800017 	ldw	r2,0(fp)
  80486c:	e1000117 	ldw	r4,4(fp)
  804870:	dac09d17 	ldw	r11,628(sp)
  804874:	12000003 	ldbu	r8,0(r2)
  804878:	213fffc4 	addi	r4,r4,-1
  80487c:	10800044 	addi	r2,r2,1
  804880:	d8c00104 	addi	r3,sp,4
  804884:	e1000115 	stw	r4,4(fp)
  804888:	e0800015 	stw	r2,0(fp)
  80488c:	85000044 	addi	r20,r16,1
  804890:	dac00015 	stw	r11,0(sp)
  804894:	1c21883a 	add	r16,r3,r16
  804898:	180d883a 	mov	r6,r3
  80489c:	b009883a 	mov	r4,r22
  8048a0:	980b883a 	mov	r5,r19
  8048a4:	a00f883a 	mov	r7,r20
  8048a8:	82000005 	stb	r8,0(r16)
  8048ac:	0808c380 	call	808c38 <_mbrtowc_r>
  8048b0:	00ffffc4 	movi	r3,-1
  8048b4:	10fb5726 	beq	r2,r3,803614 <__alt_data_end+0xff803614>
  8048b8:	103b491e 	bne	r2,zero,8035e0 <__alt_data_end+0xff8035e0>
  8048bc:	98000015 	stw	zero,0(r19)
  8048c0:	0009883a 	mov	r4,zero
  8048c4:	0808acc0 	call	808acc <iswspace>
  8048c8:	10000c26 	beq	r2,zero,8048fc <__ssvfscanf_r+0x1644>
  8048cc:	8821883a 	mov	r16,r17
  8048d0:	dc40a017 	ldw	r17,640(sp)
  8048d4:	a03ee526 	beq	r20,zero,80446c <__alt_data_end+0xff80446c>
  8048d8:	a53fffc4 	addi	r20,r20,-1
  8048dc:	d9400104 	addi	r5,sp,4
  8048e0:	2d05883a 	add	r2,r5,r20
  8048e4:	11400003 	ldbu	r5,0(r2)
  8048e8:	b009883a 	mov	r4,r22
  8048ec:	e00d883a 	mov	r6,fp
  8048f0:	080cdd40 	call	80cdd4 <_sungetc_r>
  8048f4:	a03ff81e 	bne	r20,zero,8048d8 <__alt_data_end+0xff8048d8>
  8048f8:	003edc06 	br	80446c <__alt_data_end+0xff80446c>
  8048fc:	9525883a 	add	r18,r18,r20
  804900:	ad7fffc4 	addi	r21,r21,-1
  804904:	8800051e 	bne	r17,zero,80491c <__ssvfscanf_r+0x1664>
  804908:	9cc00104 	addi	r19,r19,4
  80490c:	0021883a 	mov	r16,zero
  804910:	003b3606 	br	8035ec <__alt_data_end+0xff8035ec>
  804914:	99000017 	ldw	r4,0(r19)
  804918:	003fea06 	br	8048c4 <__alt_data_end+0xff8048c4>
  80491c:	0021883a 	mov	r16,zero
  804920:	003b3206 	br	8035ec <__alt_data_end+0xff8035ec>
  804924:	d8800104 	addi	r2,sp,4
  804928:	a02b883a 	mov	r21,r20
  80492c:	153aa22e 	bgeu	r2,r20,8033b8 <__alt_data_end+0xff8033b8>
  804930:	ad7fffc4 	addi	r21,r21,-1
  804934:	a9400007 	ldb	r5,0(r21)
  804938:	b009883a 	mov	r4,r22
  80493c:	e00d883a 	mov	r6,fp
  804940:	080cdd40 	call	80cdd4 <_sungetc_r>
  804944:	d8c00104 	addi	r3,sp,4
  804948:	a8fff91e 	bne	r21,r3,804930 <__alt_data_end+0xff804930>
  80494c:	003a9a06 	br	8033b8 <__alt_data_end+0xff8033b8>
  804950:	d8c00104 	addi	r3,sp,4
  804954:	a02b883a 	mov	r21,r20
  804958:	1d3a972e 	bgeu	r3,r20,8033b8 <__alt_data_end+0xff8033b8>
  80495c:	ad7fffc4 	addi	r21,r21,-1
  804960:	a9400007 	ldb	r5,0(r21)
  804964:	b009883a 	mov	r4,r22
  804968:	e00d883a 	mov	r6,fp
  80496c:	080cdd40 	call	80cdd4 <_sungetc_r>
  804970:	d9000104 	addi	r4,sp,4
  804974:	a93ff91e 	bne	r21,r4,80495c <__alt_data_end+0xff80495c>
  804978:	003a8f06 	br	8033b8 <__alt_data_end+0xff8033b8>
  80497c:	d9400104 	addi	r5,sp,4
  804980:	a021883a 	mov	r16,r20
  804984:	2d3a8c2e 	bgeu	r5,r20,8033b8 <__alt_data_end+0xff8033b8>
  804988:	843fffc4 	addi	r16,r16,-1
  80498c:	81400007 	ldb	r5,0(r16)
  804990:	b009883a 	mov	r4,r22
  804994:	e00d883a 	mov	r6,fp
  804998:	080cdd40 	call	80cdd4 <_sungetc_r>
  80499c:	dac00104 	addi	r11,sp,4
  8049a0:	82fff91e 	bne	r16,r11,804988 <__alt_data_end+0xff804988>
  8049a4:	003a8406 	br	8033b8 <__alt_data_end+0xff8033b8>
  8049a8:	080caa00 	call	80caa0 <_strtoull_r>
  8049ac:	003fa006 	br	804830 <__alt_data_end+0xff804830>

008049b0 <___vfprintf_internal_r>:
  8049b0:	deffb604 	addi	sp,sp,-296
  8049b4:	dfc04915 	stw	ra,292(sp)
  8049b8:	ddc04715 	stw	r23,284(sp)
  8049bc:	dd804615 	stw	r22,280(sp)
  8049c0:	282f883a 	mov	r23,r5
  8049c4:	202d883a 	mov	r22,r4
  8049c8:	d9802a15 	stw	r6,168(sp)
  8049cc:	d9c02d15 	stw	r7,180(sp)
  8049d0:	df004815 	stw	fp,288(sp)
  8049d4:	dd404515 	stw	r21,276(sp)
  8049d8:	dd004415 	stw	r20,272(sp)
  8049dc:	dcc04315 	stw	r19,268(sp)
  8049e0:	dc804215 	stw	r18,264(sp)
  8049e4:	dc404115 	stw	r17,260(sp)
  8049e8:	dc004015 	stw	r16,256(sp)
  8049ec:	0808ba80 	call	808ba8 <_localeconv_r>
  8049f0:	10800017 	ldw	r2,0(r2)
  8049f4:	1009883a 	mov	r4,r2
  8049f8:	d8803515 	stw	r2,212(sp)
  8049fc:	08032200 	call	803220 <strlen>
  804a00:	d8803815 	stw	r2,224(sp)
  804a04:	b0000226 	beq	r22,zero,804a10 <___vfprintf_internal_r+0x60>
  804a08:	b0800e17 	ldw	r2,56(r22)
  804a0c:	1000e126 	beq	r2,zero,804d94 <___vfprintf_internal_r+0x3e4>
  804a10:	b880030b 	ldhu	r2,12(r23)
  804a14:	10c8000c 	andi	r3,r2,8192
  804a18:	1800061e 	bne	r3,zero,804a34 <___vfprintf_internal_r+0x84>
  804a1c:	b9001917 	ldw	r4,100(r23)
  804a20:	00f7ffc4 	movi	r3,-8193
  804a24:	10880014 	ori	r2,r2,8192
  804a28:	20c6703a 	and	r3,r4,r3
  804a2c:	b880030d 	sth	r2,12(r23)
  804a30:	b8c01915 	stw	r3,100(r23)
  804a34:	10c0020c 	andi	r3,r2,8
  804a38:	1800a726 	beq	r3,zero,804cd8 <___vfprintf_internal_r+0x328>
  804a3c:	b8c00417 	ldw	r3,16(r23)
  804a40:	1800a526 	beq	r3,zero,804cd8 <___vfprintf_internal_r+0x328>
  804a44:	1080068c 	andi	r2,r2,26
  804a48:	00c00284 	movi	r3,10
  804a4c:	10c0aa26 	beq	r2,r3,804cf8 <___vfprintf_internal_r+0x348>
  804a50:	dac01e04 	addi	r11,sp,120
  804a54:	db001dc4 	addi	r12,sp,119
  804a58:	d8800404 	addi	r2,sp,16
  804a5c:	050020b4 	movhi	r20,130
  804a60:	dac02815 	stw	r11,160(sp)
  804a64:	5b17c83a 	sub	r11,r11,r12
  804a68:	a52dd184 	addi	r20,r20,-18618
  804a6c:	db002915 	stw	r12,164(sp)
  804a70:	d8801e15 	stw	r2,120(sp)
  804a74:	d8002015 	stw	zero,128(sp)
  804a78:	d8001f15 	stw	zero,124(sp)
  804a7c:	d8003315 	stw	zero,204(sp)
  804a80:	d8003715 	stw	zero,220(sp)
  804a84:	d8003915 	stw	zero,228(sp)
  804a88:	1011883a 	mov	r8,r2
  804a8c:	d8003b15 	stw	zero,236(sp)
  804a90:	d8003a15 	stw	zero,232(sp)
  804a94:	d8002f15 	stw	zero,188(sp)
  804a98:	dac03c15 	stw	r11,240(sp)
  804a9c:	db002a17 	ldw	r12,168(sp)
  804aa0:	60800007 	ldb	r2,0(r12)
  804aa4:	1000be26 	beq	r2,zero,804da0 <___vfprintf_internal_r+0x3f0>
  804aa8:	00c00944 	movi	r3,37
  804aac:	10c0bc26 	beq	r2,r3,804da0 <___vfprintf_internal_r+0x3f0>
  804ab0:	6021883a 	mov	r16,r12
  804ab4:	00000106 	br	804abc <___vfprintf_internal_r+0x10c>
  804ab8:	10c08426 	beq	r2,r3,804ccc <___vfprintf_internal_r+0x31c>
  804abc:	84000044 	addi	r16,r16,1
  804ac0:	80800007 	ldb	r2,0(r16)
  804ac4:	103ffc1e 	bne	r2,zero,804ab8 <__alt_data_end+0xff804ab8>
  804ac8:	dac02a17 	ldw	r11,168(sp)
  804acc:	82e3c83a 	sub	r17,r16,r11
  804ad0:	88000f26 	beq	r17,zero,804b10 <___vfprintf_internal_r+0x160>
  804ad4:	d8c02017 	ldw	r3,128(sp)
  804ad8:	d8801f17 	ldw	r2,124(sp)
  804adc:	dac02a17 	ldw	r11,168(sp)
  804ae0:	1c47883a 	add	r3,r3,r17
  804ae4:	10800044 	addi	r2,r2,1
  804ae8:	d8c02015 	stw	r3,128(sp)
  804aec:	42c00015 	stw	r11,0(r8)
  804af0:	44400115 	stw	r17,4(r8)
  804af4:	d8801f15 	stw	r2,124(sp)
  804af8:	00c001c4 	movi	r3,7
  804afc:	18809316 	blt	r3,r2,804d4c <___vfprintf_internal_r+0x39c>
  804b00:	42000204 	addi	r8,r8,8
  804b04:	db002f17 	ldw	r12,188(sp)
  804b08:	6459883a 	add	r12,r12,r17
  804b0c:	db002f15 	stw	r12,188(sp)
  804b10:	80800007 	ldb	r2,0(r16)
  804b14:	10009426 	beq	r2,zero,804d68 <___vfprintf_internal_r+0x3b8>
  804b18:	80800044 	addi	r2,r16,1
  804b1c:	84000047 	ldb	r16,1(r16)
  804b20:	d8002785 	stb	zero,158(sp)
  804b24:	000d883a 	mov	r6,zero
  804b28:	027fffc4 	movi	r9,-1
  804b2c:	d8002e15 	stw	zero,184(sp)
  804b30:	0023883a 	mov	r17,zero
  804b34:	01001604 	movi	r4,88
  804b38:	01400244 	movi	r5,9
  804b3c:	02800a84 	movi	r10,42
  804b40:	01c01b04 	movi	r7,108
  804b44:	10c00044 	addi	r3,r2,1
  804b48:	80bff804 	addi	r2,r16,-32
  804b4c:	2082cd36 	bltu	r4,r2,805684 <___vfprintf_internal_r+0xcd4>
  804b50:	100490ba 	slli	r2,r2,2
  804b54:	02c02034 	movhi	r11,128
  804b58:	5ad2da04 	addi	r11,r11,19304
  804b5c:	12c5883a 	add	r2,r2,r11
  804b60:	10800017 	ldw	r2,0(r2)
  804b64:	1000683a 	jmp	r2
  804b68:	0080549c 	xori	r2,zero,338
  804b6c:	00805684 	movi	r2,346
  804b70:	00805684 	movi	r2,346
  804b74:	008055ec 	andhi	r2,zero,343
  804b78:	00805684 	movi	r2,346
  804b7c:	00805684 	movi	r2,346
  804b80:	00805684 	movi	r2,346
  804b84:	00805684 	movi	r2,346
  804b88:	00805684 	movi	r2,346
  804b8c:	00805684 	movi	r2,346
  804b90:	008054bc 	xorhi	r2,zero,338
  804b94:	008054e8 	cmpgeui	r2,zero,339
  804b98:	00805684 	movi	r2,346
  804b9c:	00804da8 	cmpgeui	r2,zero,310
  804ba0:	00804db8 	rdprs	r2,zero,310
  804ba4:	00805684 	movi	r2,346
  804ba8:	00804df8 	rdprs	r2,zero,311
  804bac:	00804e08 	cmpgei	r2,zero,312
  804bb0:	00804e08 	cmpgei	r2,zero,312
  804bb4:	00804e08 	cmpgei	r2,zero,312
  804bb8:	00804e08 	cmpgei	r2,zero,312
  804bbc:	00804e08 	cmpgei	r2,zero,312
  804bc0:	00804e08 	cmpgei	r2,zero,312
  804bc4:	00804e08 	cmpgei	r2,zero,312
  804bc8:	00804e08 	cmpgei	r2,zero,312
  804bcc:	00804e08 	cmpgei	r2,zero,312
  804bd0:	00805684 	movi	r2,346
  804bd4:	00805684 	movi	r2,346
  804bd8:	00805684 	movi	r2,346
  804bdc:	00805684 	movi	r2,346
  804be0:	00805684 	movi	r2,346
  804be4:	00805684 	movi	r2,346
  804be8:	00805684 	movi	r2,346
  804bec:	00805684 	movi	r2,346
  804bf0:	00805684 	movi	r2,346
  804bf4:	00805684 	movi	r2,346
  804bf8:	00804e3c 	xorhi	r2,zero,312
  804bfc:	008052ac 	andhi	r2,zero,330
  804c00:	00805684 	movi	r2,346
  804c04:	008052ac 	andhi	r2,zero,330
  804c08:	00805684 	movi	r2,346
  804c0c:	00805684 	movi	r2,346
  804c10:	00805684 	movi	r2,346
  804c14:	00805684 	movi	r2,346
  804c18:	00805398 	cmpnei	r2,zero,334
  804c1c:	00805684 	movi	r2,346
  804c20:	00805684 	movi	r2,346
  804c24:	00805240 	call	80524 <__alt_mem_sdram_0-0x77fadc>
  804c28:	00805684 	movi	r2,346
  804c2c:	00805684 	movi	r2,346
  804c30:	00805684 	movi	r2,346
  804c34:	00805684 	movi	r2,346
  804c38:	00805684 	movi	r2,346
  804c3c:	0080527c 	xorhi	r2,zero,329
  804c40:	00805684 	movi	r2,346
  804c44:	00805684 	movi	r2,346
  804c48:	00805440 	call	80544 <__alt_mem_sdram_0-0x77fabc>
  804c4c:	00805684 	movi	r2,346
  804c50:	00805684 	movi	r2,346
  804c54:	00805684 	movi	r2,346
  804c58:	00805684 	movi	r2,346
  804c5c:	00805684 	movi	r2,346
  804c60:	00805684 	movi	r2,346
  804c64:	00805684 	movi	r2,346
  804c68:	00805684 	movi	r2,346
  804c6c:	00805684 	movi	r2,346
  804c70:	00805684 	movi	r2,346
  804c74:	008054f8 	rdprs	r2,zero,339
  804c78:	008053a8 	cmpgeui	r2,zero,334
  804c7c:	008052ac 	andhi	r2,zero,330
  804c80:	008052ac 	andhi	r2,zero,330
  804c84:	008052ac 	andhi	r2,zero,330
  804c88:	008053e8 	cmpgeui	r2,zero,335
  804c8c:	008053a8 	cmpgeui	r2,zero,334
  804c90:	00805684 	movi	r2,346
  804c94:	00805684 	movi	r2,346
  804c98:	008053f8 	rdprs	r2,zero,335
  804c9c:	00805684 	movi	r2,346
  804ca0:	0080540c 	andi	r2,zero,336
  804ca4:	00805648 	cmpgei	r2,zero,345
  804ca8:	00805350 	cmplti	r2,zero,333
  804cac:	008055fc 	xorhi	r2,zero,343
  804cb0:	00805684 	movi	r2,346
  804cb4:	00805538 	rdprs	r2,zero,340
  804cb8:	00805684 	movi	r2,346
  804cbc:	0080560c 	andi	r2,zero,344
  804cc0:	00805684 	movi	r2,346
  804cc4:	00805684 	movi	r2,346
  804cc8:	008055ac 	andhi	r2,zero,342
  804ccc:	db002a17 	ldw	r12,168(sp)
  804cd0:	8323c83a 	sub	r17,r16,r12
  804cd4:	003f7e06 	br	804ad0 <__alt_data_end+0xff804ad0>
  804cd8:	b009883a 	mov	r4,r22
  804cdc:	b80b883a 	mov	r5,r23
  804ce0:	0806a3c0 	call	806a3c <__swsetup_r>
  804ce4:	10000c1e 	bne	r2,zero,804d18 <___vfprintf_internal_r+0x368>
  804ce8:	b880030b 	ldhu	r2,12(r23)
  804cec:	00c00284 	movi	r3,10
  804cf0:	1080068c 	andi	r2,r2,26
  804cf4:	10ff561e 	bne	r2,r3,804a50 <__alt_data_end+0xff804a50>
  804cf8:	b880038f 	ldh	r2,14(r23)
  804cfc:	103f5416 	blt	r2,zero,804a50 <__alt_data_end+0xff804a50>
  804d00:	d9802a17 	ldw	r6,168(sp)
  804d04:	d9c02d17 	ldw	r7,180(sp)
  804d08:	b009883a 	mov	r4,r22
  804d0c:	b80b883a 	mov	r5,r23
  804d10:	08069240 	call	806924 <__sbprintf>
  804d14:	00000106 	br	804d1c <___vfprintf_internal_r+0x36c>
  804d18:	00bfffc4 	movi	r2,-1
  804d1c:	dfc04917 	ldw	ra,292(sp)
  804d20:	df004817 	ldw	fp,288(sp)
  804d24:	ddc04717 	ldw	r23,284(sp)
  804d28:	dd804617 	ldw	r22,280(sp)
  804d2c:	dd404517 	ldw	r21,276(sp)
  804d30:	dd004417 	ldw	r20,272(sp)
  804d34:	dcc04317 	ldw	r19,268(sp)
  804d38:	dc804217 	ldw	r18,264(sp)
  804d3c:	dc404117 	ldw	r17,260(sp)
  804d40:	dc004017 	ldw	r16,256(sp)
  804d44:	dec04a04 	addi	sp,sp,296
  804d48:	f800283a 	ret
  804d4c:	b009883a 	mov	r4,r22
  804d50:	b80b883a 	mov	r5,r23
  804d54:	d9801e04 	addi	r6,sp,120
  804d58:	08103a00 	call	8103a0 <__sprint_r>
  804d5c:	1000081e 	bne	r2,zero,804d80 <___vfprintf_internal_r+0x3d0>
  804d60:	da000404 	addi	r8,sp,16
  804d64:	003f6706 	br	804b04 <__alt_data_end+0xff804b04>
  804d68:	d8802017 	ldw	r2,128(sp)
  804d6c:	10000426 	beq	r2,zero,804d80 <___vfprintf_internal_r+0x3d0>
  804d70:	b009883a 	mov	r4,r22
  804d74:	b80b883a 	mov	r5,r23
  804d78:	d9801e04 	addi	r6,sp,120
  804d7c:	08103a00 	call	8103a0 <__sprint_r>
  804d80:	b880030b 	ldhu	r2,12(r23)
  804d84:	1080100c 	andi	r2,r2,64
  804d88:	103fe31e 	bne	r2,zero,804d18 <__alt_data_end+0xff804d18>
  804d8c:	d8802f17 	ldw	r2,188(sp)
  804d90:	003fe206 	br	804d1c <__alt_data_end+0xff804d1c>
  804d94:	b009883a 	mov	r4,r22
  804d98:	08012d00 	call	8012d0 <__sinit>
  804d9c:	003f1c06 	br	804a10 <__alt_data_end+0xff804a10>
  804da0:	dc002a17 	ldw	r16,168(sp)
  804da4:	003f5a06 	br	804b10 <__alt_data_end+0xff804b10>
  804da8:	1805883a 	mov	r2,r3
  804dac:	8c400114 	ori	r17,r17,4
  804db0:	1c000007 	ldb	r16,0(r3)
  804db4:	003f6306 	br	804b44 <__alt_data_end+0xff804b44>
  804db8:	1c000007 	ldb	r16,0(r3)
  804dbc:	18800044 	addi	r2,r3,1
  804dc0:	8286ad26 	beq	r16,r10,806878 <___vfprintf_internal_r+0x1ec8>
  804dc4:	82fff404 	addi	r11,r16,-48
  804dc8:	1007883a 	mov	r3,r2
  804dcc:	0013883a 	mov	r9,zero
  804dd0:	2aff5d36 	bltu	r5,r11,804b48 <__alt_data_end+0xff804b48>
  804dd4:	1c000007 	ldb	r16,0(r3)
  804dd8:	4a4002a4 	muli	r9,r9,10
  804ddc:	18c00044 	addi	r3,r3,1
  804de0:	5a53883a 	add	r9,r11,r9
  804de4:	82fff404 	addi	r11,r16,-48
  804de8:	2afffa2e 	bgeu	r5,r11,804dd4 <__alt_data_end+0xff804dd4>
  804dec:	483f560e 	bge	r9,zero,804b48 <__alt_data_end+0xff804b48>
  804df0:	027fffc4 	movi	r9,-1
  804df4:	003f5406 	br	804b48 <__alt_data_end+0xff804b48>
  804df8:	8c402014 	ori	r17,r17,128
  804dfc:	1805883a 	mov	r2,r3
  804e00:	1c000007 	ldb	r16,0(r3)
  804e04:	003f4f06 	br	804b44 <__alt_data_end+0xff804b44>
  804e08:	1805883a 	mov	r2,r3
  804e0c:	d8002e15 	stw	zero,184(sp)
  804e10:	82fff404 	addi	r11,r16,-48
  804e14:	0019883a 	mov	r12,zero
  804e18:	14000007 	ldb	r16,0(r2)
  804e1c:	630002a4 	muli	r12,r12,10
  804e20:	18c00044 	addi	r3,r3,1
  804e24:	1805883a 	mov	r2,r3
  804e28:	62d9883a 	add	r12,r12,r11
  804e2c:	82fff404 	addi	r11,r16,-48
  804e30:	2afff92e 	bgeu	r5,r11,804e18 <__alt_data_end+0xff804e18>
  804e34:	db002e15 	stw	r12,184(sp)
  804e38:	003f4306 	br	804b48 <__alt_data_end+0xff804b48>
  804e3c:	8c400414 	ori	r17,r17,16
  804e40:	d8c02a15 	stw	r3,168(sp)
  804e44:	d9802785 	stb	r6,158(sp)
  804e48:	8880080c 	andi	r2,r17,32
  804e4c:	d8c02d17 	ldw	r3,180(sp)
  804e50:	10015a26 	beq	r2,zero,8053bc <___vfprintf_internal_r+0xa0c>
  804e54:	db002d17 	ldw	r12,180(sp)
  804e58:	18800117 	ldw	r2,4(r3)
  804e5c:	1cc00017 	ldw	r19,0(r3)
  804e60:	63000204 	addi	r12,r12,8
  804e64:	db002d15 	stw	r12,180(sp)
  804e68:	1039883a 	mov	fp,r2
  804e6c:	10044516 	blt	r2,zero,805f84 <___vfprintf_internal_r+0x15d4>
  804e70:	dd402783 	ldbu	r21,158(sp)
  804e74:	da403215 	stw	r9,200(sp)
  804e78:	00800044 	movi	r2,1
  804e7c:	9f06b03a 	or	r3,r19,fp
  804e80:	48000216 	blt	r9,zero,804e8c <___vfprintf_internal_r+0x4dc>
  804e84:	013fdfc4 	movi	r4,-129
  804e88:	8922703a 	and	r17,r17,r4
  804e8c:	1802071e 	bne	r3,zero,8056ac <___vfprintf_internal_r+0xcfc>
  804e90:	4802fa26 	beq	r9,zero,805a7c <___vfprintf_internal_r+0x10cc>
  804e94:	10803fcc 	andi	r2,r2,255
  804e98:	00c00044 	movi	r3,1
  804e9c:	10c22926 	beq	r2,r3,805744 <___vfprintf_internal_r+0xd94>
  804ea0:	00c00084 	movi	r3,2
  804ea4:	10c31726 	beq	r2,r3,805b04 <___vfprintf_internal_r+0x1154>
  804ea8:	d8c01e04 	addi	r3,sp,120
  804eac:	9808d0fa 	srli	r4,r19,3
  804eb0:	e00a977a 	slli	r5,fp,29
  804eb4:	e038d0fa 	srli	fp,fp,3
  804eb8:	9cc001cc 	andi	r19,r19,7
  804ebc:	98800c04 	addi	r2,r19,48
  804ec0:	18ffffc4 	addi	r3,r3,-1
  804ec4:	2926b03a 	or	r19,r5,r4
  804ec8:	18800005 	stb	r2,0(r3)
  804ecc:	9f08b03a 	or	r4,r19,fp
  804ed0:	203ff61e 	bne	r4,zero,804eac <__alt_data_end+0xff804eac>
  804ed4:	8900004c 	andi	r4,r17,1
  804ed8:	d8c03115 	stw	r3,196(sp)
  804edc:	2003931e 	bne	r4,zero,805d2c <___vfprintf_internal_r+0x137c>
  804ee0:	dac02817 	ldw	r11,160(sp)
  804ee4:	58e5c83a 	sub	r18,r11,r3
  804ee8:	9005883a 	mov	r2,r18
  804eec:	9240010e 	bge	r18,r9,804ef4 <___vfprintf_internal_r+0x544>
  804ef0:	4805883a 	mov	r2,r9
  804ef4:	d8802b15 	stw	r2,172(sp)
  804ef8:	d8003415 	stw	zero,208(sp)
  804efc:	a8803fcc 	andi	r2,r21,255
  804f00:	1080201c 	xori	r2,r2,128
  804f04:	10bfe004 	addi	r2,r2,-128
  804f08:	10000326 	beq	r2,zero,804f18 <___vfprintf_internal_r+0x568>
  804f0c:	db002b17 	ldw	r12,172(sp)
  804f10:	63000044 	addi	r12,r12,1
  804f14:	db002b15 	stw	r12,172(sp)
  804f18:	88c0008c 	andi	r3,r17,2
  804f1c:	d8c02c15 	stw	r3,176(sp)
  804f20:	18000326 	beq	r3,zero,804f30 <___vfprintf_internal_r+0x580>
  804f24:	dac02b17 	ldw	r11,172(sp)
  804f28:	5ac00084 	addi	r11,r11,2
  804f2c:	dac02b15 	stw	r11,172(sp)
  804f30:	8b00210c 	andi	r12,r17,132
  804f34:	db003015 	stw	r12,192(sp)
  804f38:	6001da1e 	bne	r12,zero,8056a4 <___vfprintf_internal_r+0xcf4>
  804f3c:	dac02e17 	ldw	r11,184(sp)
  804f40:	db002b17 	ldw	r12,172(sp)
  804f44:	5b39c83a 	sub	fp,r11,r12
  804f48:	0701d60e 	bge	zero,fp,8056a4 <___vfprintf_internal_r+0xcf4>
  804f4c:	02400404 	movi	r9,16
  804f50:	d8c02017 	ldw	r3,128(sp)
  804f54:	d8801f17 	ldw	r2,124(sp)
  804f58:	4f053c0e 	bge	r9,fp,80644c <___vfprintf_internal_r+0x1a9c>
  804f5c:	014020b4 	movhi	r5,130
  804f60:	296dd584 	addi	r5,r5,-18602
  804f64:	d9403615 	stw	r5,216(sp)
  804f68:	482b883a 	mov	r21,r9
  804f6c:	04c001c4 	movi	r19,7
  804f70:	00000306 	br	804f80 <___vfprintf_internal_r+0x5d0>
  804f74:	e73ffc04 	addi	fp,fp,-16
  804f78:	42000204 	addi	r8,r8,8
  804f7c:	af00130e 	bge	r21,fp,804fcc <___vfprintf_internal_r+0x61c>
  804f80:	02c020b4 	movhi	r11,130
  804f84:	18c00404 	addi	r3,r3,16
  804f88:	10800044 	addi	r2,r2,1
  804f8c:	5aedd584 	addi	r11,r11,-18602
  804f90:	42c00015 	stw	r11,0(r8)
  804f94:	45400115 	stw	r21,4(r8)
  804f98:	d8c02015 	stw	r3,128(sp)
  804f9c:	d8801f15 	stw	r2,124(sp)
  804fa0:	98bff40e 	bge	r19,r2,804f74 <__alt_data_end+0xff804f74>
  804fa4:	b009883a 	mov	r4,r22
  804fa8:	b80b883a 	mov	r5,r23
  804fac:	d9801e04 	addi	r6,sp,120
  804fb0:	08103a00 	call	8103a0 <__sprint_r>
  804fb4:	103f721e 	bne	r2,zero,804d80 <__alt_data_end+0xff804d80>
  804fb8:	e73ffc04 	addi	fp,fp,-16
  804fbc:	d8c02017 	ldw	r3,128(sp)
  804fc0:	d8801f17 	ldw	r2,124(sp)
  804fc4:	da000404 	addi	r8,sp,16
  804fc8:	af3fed16 	blt	r21,fp,804f80 <__alt_data_end+0xff804f80>
  804fcc:	db003617 	ldw	r12,216(sp)
  804fd0:	e0c7883a 	add	r3,fp,r3
  804fd4:	10800044 	addi	r2,r2,1
  804fd8:	43000015 	stw	r12,0(r8)
  804fdc:	47000115 	stw	fp,4(r8)
  804fe0:	d8c02015 	stw	r3,128(sp)
  804fe4:	d8801f15 	stw	r2,124(sp)
  804fe8:	010001c4 	movi	r4,7
  804fec:	20830e16 	blt	r4,r2,805c28 <___vfprintf_internal_r+0x1278>
  804ff0:	d8802787 	ldb	r2,158(sp)
  804ff4:	42000204 	addi	r8,r8,8
  804ff8:	10000c26 	beq	r2,zero,80502c <___vfprintf_internal_r+0x67c>
  804ffc:	d8801f17 	ldw	r2,124(sp)
  805000:	d9002784 	addi	r4,sp,158
  805004:	18c00044 	addi	r3,r3,1
  805008:	10800044 	addi	r2,r2,1
  80500c:	41000015 	stw	r4,0(r8)
  805010:	01000044 	movi	r4,1
  805014:	41000115 	stw	r4,4(r8)
  805018:	d8c02015 	stw	r3,128(sp)
  80501c:	d8801f15 	stw	r2,124(sp)
  805020:	010001c4 	movi	r4,7
  805024:	2082a716 	blt	r4,r2,805ac4 <___vfprintf_internal_r+0x1114>
  805028:	42000204 	addi	r8,r8,8
  80502c:	dac02c17 	ldw	r11,176(sp)
  805030:	58000c26 	beq	r11,zero,805064 <___vfprintf_internal_r+0x6b4>
  805034:	d8801f17 	ldw	r2,124(sp)
  805038:	d9002704 	addi	r4,sp,156
  80503c:	18c00084 	addi	r3,r3,2
  805040:	10800044 	addi	r2,r2,1
  805044:	41000015 	stw	r4,0(r8)
  805048:	01000084 	movi	r4,2
  80504c:	41000115 	stw	r4,4(r8)
  805050:	d8c02015 	stw	r3,128(sp)
  805054:	d8801f15 	stw	r2,124(sp)
  805058:	010001c4 	movi	r4,7
  80505c:	2082a116 	blt	r4,r2,805ae4 <___vfprintf_internal_r+0x1134>
  805060:	42000204 	addi	r8,r8,8
  805064:	db003017 	ldw	r12,192(sp)
  805068:	00802004 	movi	r2,128
  80506c:	60820326 	beq	r12,r2,80587c <___vfprintf_internal_r+0xecc>
  805070:	db003217 	ldw	r12,200(sp)
  805074:	64abc83a 	sub	r21,r12,r18
  805078:	0540260e 	bge	zero,r21,805114 <___vfprintf_internal_r+0x764>
  80507c:	07000404 	movi	fp,16
  805080:	d8801f17 	ldw	r2,124(sp)
  805084:	e544570e 	bge	fp,r21,8061e4 <___vfprintf_internal_r+0x1834>
  805088:	014020b4 	movhi	r5,130
  80508c:	296dd184 	addi	r5,r5,-18618
  805090:	d9402c15 	stw	r5,176(sp)
  805094:	04c001c4 	movi	r19,7
  805098:	00000306 	br	8050a8 <___vfprintf_internal_r+0x6f8>
  80509c:	ad7ffc04 	addi	r21,r21,-16
  8050a0:	42000204 	addi	r8,r8,8
  8050a4:	e540110e 	bge	fp,r21,8050ec <___vfprintf_internal_r+0x73c>
  8050a8:	18c00404 	addi	r3,r3,16
  8050ac:	10800044 	addi	r2,r2,1
  8050b0:	45000015 	stw	r20,0(r8)
  8050b4:	47000115 	stw	fp,4(r8)
  8050b8:	d8c02015 	stw	r3,128(sp)
  8050bc:	d8801f15 	stw	r2,124(sp)
  8050c0:	98bff60e 	bge	r19,r2,80509c <__alt_data_end+0xff80509c>
  8050c4:	b009883a 	mov	r4,r22
  8050c8:	b80b883a 	mov	r5,r23
  8050cc:	d9801e04 	addi	r6,sp,120
  8050d0:	08103a00 	call	8103a0 <__sprint_r>
  8050d4:	103f2a1e 	bne	r2,zero,804d80 <__alt_data_end+0xff804d80>
  8050d8:	ad7ffc04 	addi	r21,r21,-16
  8050dc:	d8c02017 	ldw	r3,128(sp)
  8050e0:	d8801f17 	ldw	r2,124(sp)
  8050e4:	da000404 	addi	r8,sp,16
  8050e8:	e57fef16 	blt	fp,r21,8050a8 <__alt_data_end+0xff8050a8>
  8050ec:	dac02c17 	ldw	r11,176(sp)
  8050f0:	1d47883a 	add	r3,r3,r21
  8050f4:	10800044 	addi	r2,r2,1
  8050f8:	42c00015 	stw	r11,0(r8)
  8050fc:	45400115 	stw	r21,4(r8)
  805100:	d8c02015 	stw	r3,128(sp)
  805104:	d8801f15 	stw	r2,124(sp)
  805108:	010001c4 	movi	r4,7
  80510c:	20826516 	blt	r4,r2,805aa4 <___vfprintf_internal_r+0x10f4>
  805110:	42000204 	addi	r8,r8,8
  805114:	8880400c 	andi	r2,r17,256
  805118:	1001901e 	bne	r2,zero,80575c <___vfprintf_internal_r+0xdac>
  80511c:	d8801f17 	ldw	r2,124(sp)
  805120:	db003117 	ldw	r12,196(sp)
  805124:	1c87883a 	add	r3,r3,r18
  805128:	10800044 	addi	r2,r2,1
  80512c:	43000015 	stw	r12,0(r8)
  805130:	44800115 	stw	r18,4(r8)
  805134:	d8c02015 	stw	r3,128(sp)
  805138:	d8801f15 	stw	r2,124(sp)
  80513c:	010001c4 	movi	r4,7
  805140:	20824016 	blt	r4,r2,805a44 <___vfprintf_internal_r+0x1094>
  805144:	42000204 	addi	r8,r8,8
  805148:	8c40010c 	andi	r17,r17,4
  80514c:	88003126 	beq	r17,zero,805214 <___vfprintf_internal_r+0x864>
  805150:	db002e17 	ldw	r12,184(sp)
  805154:	dac02b17 	ldw	r11,172(sp)
  805158:	62e1c83a 	sub	r16,r12,r11
  80515c:	04002d0e 	bge	zero,r16,805214 <___vfprintf_internal_r+0x864>
  805160:	04400404 	movi	r17,16
  805164:	d8801f17 	ldw	r2,124(sp)
  805168:	8c05150e 	bge	r17,r16,8065c0 <___vfprintf_internal_r+0x1c10>
  80516c:	010020b4 	movhi	r4,130
  805170:	212dd584 	addi	r4,r4,-18602
  805174:	d9003615 	stw	r4,216(sp)
  805178:	048001c4 	movi	r18,7
  80517c:	00000306 	br	80518c <___vfprintf_internal_r+0x7dc>
  805180:	843ffc04 	addi	r16,r16,-16
  805184:	42000204 	addi	r8,r8,8
  805188:	8c00130e 	bge	r17,r16,8051d8 <___vfprintf_internal_r+0x828>
  80518c:	014020b4 	movhi	r5,130
  805190:	18c00404 	addi	r3,r3,16
  805194:	10800044 	addi	r2,r2,1
  805198:	296dd584 	addi	r5,r5,-18602
  80519c:	41400015 	stw	r5,0(r8)
  8051a0:	44400115 	stw	r17,4(r8)
  8051a4:	d8c02015 	stw	r3,128(sp)
  8051a8:	d8801f15 	stw	r2,124(sp)
  8051ac:	90bff40e 	bge	r18,r2,805180 <__alt_data_end+0xff805180>
  8051b0:	b009883a 	mov	r4,r22
  8051b4:	b80b883a 	mov	r5,r23
  8051b8:	d9801e04 	addi	r6,sp,120
  8051bc:	08103a00 	call	8103a0 <__sprint_r>
  8051c0:	103eef1e 	bne	r2,zero,804d80 <__alt_data_end+0xff804d80>
  8051c4:	843ffc04 	addi	r16,r16,-16
  8051c8:	d8c02017 	ldw	r3,128(sp)
  8051cc:	d8801f17 	ldw	r2,124(sp)
  8051d0:	da000404 	addi	r8,sp,16
  8051d4:	8c3fed16 	blt	r17,r16,80518c <__alt_data_end+0xff80518c>
  8051d8:	dac03617 	ldw	r11,216(sp)
  8051dc:	1c07883a 	add	r3,r3,r16
  8051e0:	10800044 	addi	r2,r2,1
  8051e4:	42c00015 	stw	r11,0(r8)
  8051e8:	44000115 	stw	r16,4(r8)
  8051ec:	d8c02015 	stw	r3,128(sp)
  8051f0:	d8801f15 	stw	r2,124(sp)
  8051f4:	010001c4 	movi	r4,7
  8051f8:	2080060e 	bge	r4,r2,805214 <___vfprintf_internal_r+0x864>
  8051fc:	b009883a 	mov	r4,r22
  805200:	b80b883a 	mov	r5,r23
  805204:	d9801e04 	addi	r6,sp,120
  805208:	08103a00 	call	8103a0 <__sprint_r>
  80520c:	103edc1e 	bne	r2,zero,804d80 <__alt_data_end+0xff804d80>
  805210:	d8c02017 	ldw	r3,128(sp)
  805214:	d8802b17 	ldw	r2,172(sp)
  805218:	db002e17 	ldw	r12,184(sp)
  80521c:	1300010e 	bge	r2,r12,805224 <___vfprintf_internal_r+0x874>
  805220:	6005883a 	mov	r2,r12
  805224:	dac02f17 	ldw	r11,188(sp)
  805228:	5897883a 	add	r11,r11,r2
  80522c:	dac02f15 	stw	r11,188(sp)
